
8aaaf200-2450-11e4-abe2-0002a5d5c51b.elf:     file format elf64-littleaarch64
8aaaf200-2450-11e4-abe2-0002a5d5c51b.elf
architecture: aarch64, flags 0x00000150:
HAS_SYMS, DYNAMIC, D_PAGED
start address 0x0000000000000218

Program Header:
    LOAD off    0x0000000000001000 vaddr 0x0000000000000000 paddr 0x0000000000000000 align 2**12
         filesz 0x00000000000109c8 memsz 0x00000000000109c8 flags r-x
    LOAD off    0x0000000000012000 vaddr 0x0000000000011000 paddr 0x0000000000011000 align 2**12
         filesz 0x00000000000005bc memsz 0x000000000000be60 flags rw-
 DYNAMIC off    0x0000000000012000 vaddr 0x0000000000011000 paddr 0x0000000000011000 align 2**3
         filesz 0x0000000000000110 memsz 0x0000000000000110 flags rw-
   STACK off    0x0000000000000000 vaddr 0x0000000000000000 paddr 0x0000000000000000 align 2**4
         filesz 0x0000000000000000 memsz 0x0000000000000000 flags rw-

Dynamic Section:
  HASH                 0x0000000000010650
  GNU_HASH             0x0000000000010560
  STRTAB               0x0000000000010620
  SYMTAB               0x0000000000010590
  STRSZ                0x000000000000002e
  SYMENT               0x0000000000000018
  DEBUG                0x0000000000000000
  RELA                 0x0000000000010680
  RELASZ               0x0000000000000558
  RELAENT              0x0000000000000018
  FLAGS_1              0x0000000008000000
  RELACOUNT            0x0000000000000023
private flags = 0x0:

Sections:
Idx Name          Size      VMA               LMA               File off  Algn
  0 .ta_head      00000020  0000000000000000  0000000000000000  00001000  2**3
                  CONTENTS, ALLOC, LOAD, READONLY, DATA
  1 .text         0000c924  0000000000000020  0000000000000020  00001020  2**4
                  CONTENTS, ALLOC, LOAD, READONLY, CODE
  2 .eh_frame     00002924  000000000000c948  000000000000c948  0000d948  2**3
                  CONTENTS, ALLOC, LOAD, READONLY, DATA
  3 .rodata       000012eb  000000000000f270  000000000000f270  00010270  2**3
                  CONTENTS, ALLOC, LOAD, READONLY, DATA
  4 .gnu.hash     00000030  0000000000010560  0000000000010560  00011560  2**3
                  CONTENTS, ALLOC, LOAD, READONLY, DATA
  5 .dynsym       00000090  0000000000010590  0000000000010590  00011590  2**3
                  CONTENTS, ALLOC, LOAD, READONLY, DATA
  6 .dynstr       0000002e  0000000000010620  0000000000010620  00011620  2**0
                  CONTENTS, ALLOC, LOAD, READONLY, DATA
  7 .hash         0000002c  0000000000010650  0000000000010650  00011650  2**3
                  CONTENTS, ALLOC, LOAD, READONLY, DATA
  8 .rela.dyn     00000348  0000000000010680  0000000000010680  00011680  2**3
                  CONTENTS, ALLOC, LOAD, READONLY, DATA
  9 .dynamic      00000110  0000000000011000  0000000000011000  00012000  2**3
                  CONTENTS, ALLOC, LOAD, DATA
 10 .got          000000d0  0000000000011110  0000000000011110  00012110  2**3
                  CONTENTS, ALLOC, LOAD, DATA
 11 .rela.got     00000210  00000000000111e0  00000000000111e0  000121e0  2**3
                  CONTENTS, ALLOC, LOAD, READONLY, DATA
 12 .data         000001cc  00000000000113f0  00000000000113f0  000123f0  2**3
                  CONTENTS, ALLOC, LOAD, DATA
 13 .bss          0000b8a0  00000000000115c0  00000000000115c0  000125bc  2**3
                  ALLOC
 14 .debug_info   0001a21e  0000000000000000  0000000000000000  000125bc  2**0
                  CONTENTS, READONLY, DEBUGGING, OCTETS
 15 .debug_abbrev 000042ec  0000000000000000  0000000000000000  0002c7da  2**0
                  CONTENTS, READONLY, DEBUGGING, OCTETS
 16 .debug_loclists 00000246  0000000000000000  0000000000000000  00030ac6  2**0
                  CONTENTS, READONLY, DEBUGGING, OCTETS
 17 .debug_aranges 000009b0  0000000000000000  0000000000000000  00030d10  2**4
                  CONTENTS, READONLY, DEBUGGING, OCTETS
 18 .debug_macro  00019e21  0000000000000000  0000000000000000  000316c0  2**0
                  CONTENTS, READONLY, DEBUGGING, OCTETS
 19 .debug_line   0000f6c2  0000000000000000  0000000000000000  0004b4e1  2**0
                  CONTENTS, READONLY, DEBUGGING, OCTETS
 20 .debug_str    0001bc7c  0000000000000000  0000000000000000  0005aba3  2**0
                  CONTENTS, READONLY, DEBUGGING, OCTETS
 21 .debug_line_str 0000036e  0000000000000000  0000000000000000  0007681f  2**0
                  CONTENTS, READONLY, DEBUGGING, OCTETS
 22 .comment      0000004e  0000000000000000  0000000000000000  00076b8d  2**0
                  CONTENTS, READONLY
 23 .debug_rnglists 00000017  0000000000000000  0000000000000000  00076bdb  2**0
                  CONTENTS, READONLY, DEBUGGING, OCTETS
 24 .debug_loc    00024053  0000000000000000  0000000000000000  00076bf2  2**0
                  CONTENTS, READONLY, DEBUGGING, OCTETS
 25 .debug_ranges 00001d10  0000000000000000  0000000000000000  0009ac50  2**4
                  CONTENTS, READONLY, DEBUGGING, OCTETS
SYMBOL TABLE:
0000000000000000 l    d  .ta_head	0000000000000000 .ta_head
0000000000000020 l    d  .text	0000000000000000 .text
000000000000c948 l    d  .eh_frame	0000000000000000 .eh_frame
000000000000f270 l    d  .rodata	0000000000000000 .rodata
0000000000010560 l    d  .gnu.hash	0000000000000000 .gnu.hash
0000000000010590 l    d  .dynsym	0000000000000000 .dynsym
0000000000010620 l    d  .dynstr	0000000000000000 .dynstr
0000000000010650 l    d  .hash	0000000000000000 .hash
0000000000010680 l    d  .rela.dyn	0000000000000000 .rela.dyn
0000000000011000 l    d  .dynamic	0000000000000000 .dynamic
0000000000011110 l    d  .got	0000000000000000 .got
00000000000111e0 l    d  .rela.got	0000000000000000 .rela.got
00000000000113f0 l    d  .data	0000000000000000 .data
00000000000115c0 l    d  .bss	0000000000000000 .bss
0000000000000000 l    d  .debug_info	0000000000000000 .debug_info
0000000000000000 l    d  .debug_abbrev	0000000000000000 .debug_abbrev
0000000000000000 l    d  .debug_loclists	0000000000000000 .debug_loclists
0000000000000000 l    d  .debug_aranges	0000000000000000 .debug_aranges
0000000000000000 l    d  .debug_macro	0000000000000000 .debug_macro
0000000000000000 l    d  .debug_line	0000000000000000 .debug_line
0000000000000000 l    d  .debug_str	0000000000000000 .debug_str
0000000000000000 l    d  .debug_line_str	0000000000000000 .debug_line_str
0000000000000000 l    d  .comment	0000000000000000 .comment
0000000000000000 l    d  .debug_rnglists	0000000000000000 .debug_rnglists
0000000000000000 l    d  .debug_loc	0000000000000000 .debug_loc
0000000000000000 l    d  .debug_ranges	0000000000000000 .debug_ranges
0000000000000000 l    df *ABS*	0000000000000000 user_ta_header.c
000000000000f278 l     O .rodata	0000000000000004 __compound_literal.7
000000000000f27c l     O .rodata	0000000000000001 __compound_literal.6
000000000000f280 l     O .rodata	0000000000000004 __compound_literal.5
000000000000f284 l     O .rodata	0000000000000004 __compound_literal.4
000000000000f288 l     O .rodata	0000000000000004 __compound_literal.3
000000000000f28c l     O .rodata	0000000000000001 __compound_literal.2
000000000000f28d l     O .rodata	0000000000000001 __compound_literal.1
000000000000f28e l     O .rodata	0000000000000001 __compound_literal.0
0000000000000000 l    df *ABS*	0000000000000000 memcpy.c
0000000000000000 l    df *ABS*	0000000000000000 hello_world_ta.c
000000000000f6fc l     O .rodata	0000000000000014 __func__.3
000000000000f710 l     O .rodata	0000000000000015 __func__.2
000000000000f725 l     O .rodata	0000000000000020 __func__.1
000000000000f745 l     O .rodata	000000000000001a __func__.0
0000000000000000 l    df *ABS*	0000000000000000 libmin_abs.c
0000000000000000 l    df *ABS*	0000000000000000 trace.c
000000000000f8d8 l     O .rodata	0000000000000005 lvl_strs.3595
0000000000000000 l    df *ABS*	0000000000000000 stack_check.c
0000000000000000 l    df *ABS*	0000000000000000 snprintk.c
000000000000078c l     F .text	0000000000000be0 kprintf.constprop.0
000000000000f352 l     O .rodata	0000000000000011 HEXDIGITS
000000000000f363 l     O .rodata	0000000000000011 hexdigits
0000000000000000 l    df *ABS*	0000000000000000 memchr.c
0000000000000000 l    df *ABS*	0000000000000000 strlen.c
0000000000000000 l    df *ABS*	0000000000000000 abort.c
0000000000000000 l    df *ABS*	0000000000000000 trace_ext.c
0000000000000000 l    df *ABS*	0000000000000000 user_ta_entry.c
0000000000001600 l     F .text	00000000000000b0 _get_fn_array
00000000000016b0 l     F .text	0000000000000090 _fini_iterate_phdr_cb
0000000000001740 l     F .text	0000000000000028 ta_header_get_session
0000000000001768 l     F .text	000000000000006c to_utee_params
00000000000017d4 l     F .text	000000000000005c from_utee_params
0000000000001830 l     F .text	0000000000000094 _init_iterate_phdr_cb
0000000000001a2c l     F .text	0000000000000098 ta_header_remove_session
000000000000f983 l     O .rodata	0000000000000016 __func__.5372
00000000000115c0 l     O .bss	0000000000000008 _num_mod_init
00000000000115c8 l     O .bss	0000000000000001 init_done
0000000000011500 l     O .data	0000000000000010 ta_sessions
0000000000011510 l     O .data	0000000000000010 __phdr_info_head
0000000000000000 l    df *ABS*	0000000000000000 user_ta_entry_compat.c
0000000000001d4c l     F .text	0000000000000064 to_gp11_param
0000000000001db0 l     F .text	0000000000000064 from_gp11_param
0000000000000000 l    df *ABS*	0000000000000000 utee_syscalls_a64.o
0000000000000000 l    df *ABS*	0000000000000000 tee_api.c
000000000000222c l     F .text	000000000000006c copy_param
0000000000002298 l     F .text	0000000000000070 copy_gp11_param
0000000000002308 l     F .text	0000000000000094 check_mem_access_rights_params
000000000000239c l     F .text	0000000000000044 buf_overlaps_no_share_heap
00000000000023e0 l     F .text	00000000000000a8 check_invoke_param
0000000000002488 l     F .text	00000000000000a8 update_out_param
0000000000002530 l     F .text	00000000000000ac update_out_gp11_param
00000000000027ac l     F .text	000000000000019c map_tmp_param
0000000000011630 l     O .bss	0000000000000008 tee_api_instance_data
000000000000f2b0 l     O .rodata	000000000000000b __func__.5408
0000000000000000 l    df *ABS*	0000000000000000 tee_api_arith_mpi.c
00000000000032ec l     F .text	0000000000000030 api_panic
000000000000331c l     F .text	0000000000000030 mpi_panic
000000000000334c l     F .text	0000000000000098 get_mpi
00000000000033e4 l     F .text	0000000000000064 copy_mpi_to_bigint
0000000000003448 l     F .text	000000000000014c bigint_binary
0000000000003594 l     F .text	0000000000000020 mpi_is_odd
00000000000035b4 l     F .text	0000000000000028 rng_read
00000000000035dc l     F .text	0000000000000574 mpi_egcd
0000000000011640 l     O .bss	0000000000003800 data.5215
000000000000407c l     F .text	00000000000001d0 bigint_binary_mod
000000000000fa73 l     O .rodata	0000000000000008 __func__.5249
000000000000fa7b l     O .rodata	000000000000000e __func__.5387
000000000000fa89 l     O .rodata	0000000000000009 __func__.5551
000000000000fa92 l     O .rodata	0000000000000012 __func__.5216
000000000000faa4 l     O .rodata	000000000000000f __func__.5255
000000000000fab3 l     O .rodata	000000000000001f __func__.5283
000000000000fad2 l     O .rodata	0000000000000019 __func__.5297
000000000000faeb l     O .rodata	0000000000000012 __func__.5406
000000000000fafd l     O .rodata	0000000000000015 __func__.5328
000000000000fb12 l     O .rodata	000000000000000e __func__.5427
000000000000fb20 l     O .rodata	000000000000000e __func__.5456
000000000000fb2e l     O .rodata	000000000000000e __func__.5464
000000000000fb3c l     O .rodata	0000000000000011 __func__.5497
000000000000fb4d l     O .rodata	0000000000000018 __func__.5510
000000000000fb65 l     O .rodata	0000000000000011 __func__.5531
000000000000fb76 l     O .rodata	000000000000001d __func__.5608
000000000000fb93 l     O .rodata	0000000000000019 __func__.5681
000000000000fbac l     O .rodata	0000000000000015 __func__.5696
0000000000000000 l    df *ABS*	0000000000000000 tee_api_panic.c
0000000000005418 l     F .text	000000000000001c check_access
000000000000543c l     F .text	0000000000000010 check_res.isra.0
0000000000000000 l    df *ABS*	0000000000000000 tee_api_property.c
0000000000005634 l     F .text	000000000000006c propset_get
00000000000056a0 l     F .text	000000000000002c is_propset_pseudo_handle
00000000000056cc l     F .text	0000000000000148 propget_get_ext_prop
0000000000005814 l     F .text	00000000000001b0 propget_get_property
000000000000f384 l     O .rodata	0000000000000004 __compound_literal.3
000000000000f388 l     O .rodata	0000000000000004 __compound_literal.2
000000000000f38c l     O .rodata	0000000000000004 __compound_literal.1
000000000000f390 l     O .rodata	0000000000000004 __compound_literal.0
0000000000000000 l    df *ABS*	0000000000000000 tee_system_pta.c
00000000000065ac l     F .text	0000000000000088 invoke_system_pta
000000000000f394 l     O .rodata	0000000000000010 uuid.4625
000000000000f3a4 l     O .rodata	000000000000000a __func__.4645
000000000000f3ae l     O .rodata	0000000000000017 __func__.4657
0000000000014e40 l     O .bss	0000000000000008 sess.4624
0000000000000000 l    df *ABS*	0000000000000000 tcb.c
000000000000fd26 l     O .rodata	0000000000000010 __func__.4082
000000000000fd36 l     O .rodata	0000000000000010 __func__.4109
0000000000014e48 l     O .bss	0000000000000008 _tls_size
0000000000014e50 l     O .bss	0000000000000008 _tcb
0000000000000000 l    df *ABS*	0000000000000000 assert.c
0000000000000000 l    df *ABS*	0000000000000000 base64.c
000000000000f3cc l     O .rodata	0000000000000041 base64_table
0000000000000000 l    df *ABS*	0000000000000000 bignum.c
0000000000006eb8 l     F .text	0000000000000064 mpi_get_digit
0000000000006f1c l     F .text	000000000000040c mpi_mul_hlp
0000000000007328 l     F .text	0000000000000038 mpi_montg_init.isra.0
0000000000007360 l     F .text	00000000000000ac mpi_bigendian_to_host.part.0
000000000000740c l     F .text	00000000000000c0 mpi_fill_random_internal
00000000000074cc l     F .text	0000000000000148 mpi_montmul.isra.0
0000000000007614 l     F .text	0000000000000078 mpi_montred
0000000000007818 l     F .text	000000000000006c mbedtls_mpi_resize_clear
0000000000009550 l     F .text	00000000000000c4 mpi_check_small_factors
0000000000009f34 l     F .text	00000000000002a4 mpi_miller_rabin
000000000000f410 l     O .rodata	00000000000002a0 small_prime
000000000000f6b0 l     O .rodata	0000000000000024 gcd_pairs
0000000000000000 l    df *ABS*	0000000000000000 constant_time.c
000000000000b048 l     F .text	0000000000000020 mbedtls_ct_uchar_mask_of_range
0000000000000000 l    df *ABS*	0000000000000000 platform_util.c
0000000000011580 l     O .data	0000000000000008 memset_func
0000000000000000 l    df *ABS*	0000000000000000 bget_malloc.c
000000000000b828 l     F .text	0000000000000010 _assert_trap
000000000000b838 l     F .text	0000000000000028 bget_buf_size.part.0
0000000000010455 l     O .rodata	000000000000000e __func__.3964
0000000000010463 l     O .rodata	0000000000000005 __func__.3890
0000000000010468 l     O .rodata	0000000000000006 __func__.3910
000000000001046e l     O .rodata	0000000000000005 __func__.3931
0000000000010473 l     O .rodata	0000000000000006 __func__.3921
0000000000010479 l     O .rodata	0000000000000006 __func__.3940
000000000001047f l     O .rodata	0000000000000014 __func__.4150
0000000000010493 l     O .rodata	0000000000000013 __func__.4014
0000000000011588 l     O .data	0000000000000030 malloc_ctx
0000000000000000 l    df *ABS*	0000000000000000 snprintf.c
0000000000000000 l    df *ABS*	0000000000000000 memmove.c
0000000000000000 l    df *ABS*	0000000000000000 memset.c
0000000000000000 l    df *ABS*	0000000000000000 strcmp.c
0000000000000000 l    df *ABS*	0000000000000000 strlcpy.c
0000000000000000 l    df *ABS*	0000000000000000 mempool.c
000000000001052f l     O .rodata	0000000000000013 __func__.3696
0000000000010542 l     O .rodata	000000000000000b __func__.3677
000000000001054d l     O .rodata	000000000000000e __func__.3702
0000000000000000 l    df *ABS*	0000000000000000 consttime_memcmp.c
0000000000000000 l    df *ABS*	0000000000000000 
0000000000011000 l     O *ABS*	0000000000000000 _DYNAMIC
0000000000011128 l     O *ABS*	0000000000000000 _GLOBAL_OFFSET_TABLE_
0000000000001590 g     F .text	0000000000000070 putchar
0000000000003cd0 g     F .text	0000000000000008 __GP11_TEE_BigIntConvertFromOctetString
00000000000051fc g     F .text	0000000000000004 TEE_BigIntConvertToFMM
0000000000004a70 g     F .text	000000000000000c TEE_BigIntSquareMod
000000000000424c g     F .text	00000000000001a0 TEE_BigIntShiftRight
000000000000c254 g     F .text	00000000000000c8 raw_malloc_add_pool
00000000000067ac g     F .text	0000000000000110 tee_invoke_supp_plugin
0000000000007730 g     F .text	00000000000000e8 mbedtls_mpi_grow
000000000000631c g     F .text	0000000000000128 __GP11_TEE_GetPropertyName
00000000000031f4 g     F .text	00000000000000d8 TEE_Realloc
0000000000005614 g     F .text	0000000000000020 __utee_check_inout_annotation
000000000000c038 g     F .text	0000000000000010 raw_free
0000000000001450 g     F .text	0000000000000100 printf
00000000000045e8 g     F .text	000000000000002c TEE_BigIntAbs
0000000000001f98 g     F .text	000000000000000c _utee_log
0000000000002be4 g     F .text	0000000000000184 TEE_InvokeTACommand
000000000000544c g     F .text	000000000000004c __utee_check_outbuf_annotation
000000000000769c g     F .text	0000000000000028 mbedtls_mpi_init_mempool
0000000000002118 g     F .text	000000000000000c _utee_cryp_random_number_generate
0000000000007e98 g     F .text	00000000000000c4 mbedtls_mpi_write_binary
0000000000000668 g     F .text	0000000000000058 vsnprintk
0000000000008714 g     F .text	0000000000000074 mbedtls_mpi_sub_int
000000000000c650 g     F .text	000000000000005c memmove
000000000000c528 g     F .text	00000000000000d0 snprintf
0000000000004000 g     F .text	000000000000007c TEE_BigIntCmpS32
0000000000002f04 g     F .text	0000000000000008 __GP11_TEE_MemMove
00000000000114f8 g     O .data	0000000000000008 __stack_chk_guard
000000000000b58c g     F .text	000000000000027c mbedtls_ct_rsaes_pkcs1_v15_unpadding
0000000000007884 g     F .text	0000000000000120 mbedtls_mpi_shrink
0000000000002f1c g     F .text	0000000000000008 __GP11_TEE_MemFill
0000000000004614 g     F .text	000000000000000c TEE_BigIntAdd
00000000000020b8 g     F .text	000000000000000c _utee_cryp_obj_restrict_usage
000000000000f298 g     O .rodata	0000000000000008 ta_heap_size
0000000000002160 g     F .text	000000000000000c _utee_asymm_operate
0000000000006c60 g     F .text	0000000000000018 _base64_enc_len
00000000000089dc g     F .text	000000000000020c mbedtls_mpi_read_string
000000000000462c g     F .text	00000000000000e4 TEE_BigIntNeg
00000000000021b4 g     F .text	000000000000000c _utee_storage_free_enum
0000000000000020 g       .text	0000000000000000 __text_start
00000000000064cc g     F .text	00000000000000e0 TEE_GetNextProperty
000000000000806c g     F .text	00000000000000c0 mbedtls_mpi_shift_r
000000000000c514 g     F .text	0000000000000014 malloc_buffer_overlaps_heap
0000000000002064 g     F .text	000000000000000c _utee_hash_init
0000000000004a58 g     F .text	000000000000000c TEE_BigIntSubMod
000000000000a8d4 g     F .text	000000000000034c mbedtls_mpi_gen_prime
000000000000604c g     F .text	0000000000000098 TEE_GetPropertyAsBinaryBlock
0000000000007b60 g     F .text	000000000000002c mbedtls_mpi_get_bit
000000000000f290 g     O .rodata	0000000000000008 __ta_no_share_heap_size
0000000000007d5c g     F .text	0000000000000084 mbedtls_mpi_read_binary
0000000000000494 g     F .text	00000000000000e0 trace_printf
000000000000961c g     F .text	0000000000000008 mbedtls_mpi_montmul
0000000000002220 g     F .text	000000000000000c _utee_cache_operation
0000000000000020 g     F .text	00000000000000ec memcpy
0000000000005200 g     F .text	00000000000000d0 TEE_BigIntConvertFromFMM
0000000000005434 g     F .text	0000000000000008 TEE_Panic
0000000000001550 g     F .text	0000000000000040 puts
00000000000052d0 g     F .text	0000000000000148 TEE_BigIntComputeFMM
0000000000003040 g     F .text	0000000000000028 TEE_GetREETime
00000000000113f0 g     O .data	0000000000000108 ta_props
000000000000318c g     F .text	0000000000000008 __GP11_TEE_Malloc
0000000000002a9c g     F .text	0000000000000148 __GP11_TEE_OpenTASession
00000000000054e4 g     F .text	0000000000000030 __utee_check_instring_annotation
000000000000c180 g     F .text	0000000000000018 malloc
0000000000006308 g     F .text	0000000000000004 TEE_FreePropertyEnumerator
000000000000b0c0 g     F .text	0000000000000010 mbedtls_ct_mpi_uint_mask
000000000000c5f8 g     F .text	0000000000000058 vsnprintf
00000000000115b8 g     O .data	0000000000000004 trace_level
0000000000003f6c g     F .text	0000000000000094 TEE_BigIntCmp
000000000000f270 g     O .rodata	0000000000000008 ta_num_props
000000000000be34 g     F .text	00000000000000d0 bgetr
0000000000002178 g     F .text	000000000000000c _utee_storage_obj_open
0000000000002f10 g     F .text	0000000000000008 __GP11_TEE_MemCompare
000000000000c8c0 g     F .text	0000000000000014 mempool_free
0000000000002070 g     F .text	000000000000000c _utee_hash_update
0000000000003cd8 g     F .text	00000000000000c8 TEE_BigIntConvertToOctetString
0000000000007c6c g     F .text	000000000000005c mbedtls_mpi_bitlen
00000000000043f4 g     F .text	0000000000000080 TEE_BigIntGetBit
000000000000f2a0 g     O .rodata	0000000000000003 trace_ext_prefix
00000000000021d8 g     F .text	000000000000000c _utee_storage_next_enum
000000000000c028 g     F .text	0000000000000010 raw_malloc
000000000000bb28 g     F .text	0000000000000088 bgetz
000000000000b0d0 g     F .text	0000000000000018 mbedtls_ct_size_bool_eq
0000000000002ef4 g     F .text	000000000000000c TEE_GetInstanceData
0000000000002f4c g     F .text	000000000000003c TEE_Wait
0000000000008788 g     F .text	00000000000001ac mbedtls_mpi_mul_mpi
00000000000043ec g     F .text	0000000000000008 __GP11_TEE_BigIntShiftRight
00000000000032dc g     F .text	0000000000000008 TEE_CacheFlush
0000000000000278 g     F .text	000000000000021c trace_vprintf
0000000000000140 g     F .text	0000000000000024 TA_DestroyEntryPoint
000000000000768c g     F .text	0000000000000010 mbedtls_mpi_init
0000000000002190 g     F .text	000000000000000c _utee_storage_obj_del
0000000000007c18 g     F .text	0000000000000054 mbedtls_mpi_lsb
0000000000006c08 g     F .text	0000000000000044 _assert_log
000000000000204c g     F .text	000000000000000c _utee_cryp_state_copy
00000000000051dc g     F .text	0000000000000008 TEE_BigIntFMMContextSizeInU32
00000000000066e4 g     F .text	00000000000000c8 tee_unmap
000000000000b104 g     F .text	0000000000000030 mbedtls_ct_uint_if
0000000000003b50 g     F .text	0000000000000050 _TEE_MathAPI_Init
00000000000068bc g     F .text	0000000000000240 __utee_tcb_init
000000000000858c g     F .text	0000000000000088 mbedtls_mpi_add_mpi
0000000000001400 g     F .text	0000000000000020 abort
000000000000020c g     F .text	000000000000000c libmin_abs
000000000000a1d8 g     F .text	00000000000001b8 mbedtls_mpi_random
0000000000000578 g     F .text	0000000000000030 __stack_chk_fail
00000000000055ac g     F .text	0000000000000020 __utee_check_out_annotation
0000000000014e60 g     O .bss	0000000000008000 ta_heap
0000000000004a7c g     F .text	0000000000000150 TEE_BigIntInvMod
00000000000018c4 g     F .text	0000000000000158 __utee_call_elf_init_fn
00000000000001d4 g     F .text	0000000000000024 TA_CloseSessionEntryPoint
00000000000001f8 g     F .text	0000000000000014 __GP11_TA_InvokeCommandEntryPoint
0000000000001fd4 g     F .text	000000000000000c _utee_close_ta_session
00000000000051a4 g     F .text	0000000000000008 __GP11_TEE_BigIntInitFMMContext
0000000000008614 g     F .text	000000000000008c mbedtls_mpi_sub_mpi
000000000000c8d4 g     F .text	0000000000000070 consttime_memcmp
0000000000001f8c g     F .text	000000000000000c _utee_return
0000000000001fa4 g     F .text	000000000000000c __utee_panic
000000000000b068 g     F .text	0000000000000048 mbedtls_ct_memcmp
0000000000006afc g     F .text	000000000000001c __tls_get_addr
0000000000000240 g     F .text	000000000000000c TA_InvokeCommandEntryPoint
0000000000001a1c g     F .text	0000000000000010 __utee_call_elf_fini_fn
000000000000c210 g     F .text	0000000000000010 free_wipe
000000000000c80c g     F .text	0000000000000064 mempool_alloc
0000000000001f80 g     F .text	000000000000000c _utee_panic
000000000000c228 g     F .text	000000000000002c raw_malloc_init_ctx
000000000000c870 g     F .text	0000000000000050 mempool_calloc
0000000000002214 g     F .text	000000000000000c _utee_cryp_obj_generate_key
00000000000021fc g     F .text	000000000000000c _utee_storage_obj_trunc
0000000000011520 g     O .data	0000000000000060 tee_props
0000000000002004 g     F .text	000000000000000c _utee_unmask_cancellation
00000000000062b4 g     F .text	000000000000000c TEE_ResetPropertyEnumerator
000000000000c198 g     F .text	000000000000001c calloc
0000000000003068 g     F .text	0000000000000124 TEE_Malloc
0000000000002724 g     F .text	0000000000000088 TEE_CheckMemoryAccessRights
00000000000060e4 g     F .text	00000000000000e8 TEE_GetPropertyAsUUID
0000000000001fb0 g     F .text	000000000000000c _utee_get_property
00000000000044e8 g     F .text	00000000000000b0 TEE_BigIntSetBit
0000000000007af8 g     F .text	0000000000000068 mbedtls_mpi_lset
0000000000000234 g     F .text	000000000000000c TA_OpenSessionEntryPoint
0000000000000164 g     F .text	0000000000000070 __GP11_TA_OpenSessionEntryPoint
0000000000006b18 g     F .text	00000000000000f0 dl_iterate_phdr
000000000001ce60 g       .bss	0000000000000000 __ftrace_buf_end
00000000000115d0 g     O .bss	0000000000000004 ta_param_types
000000000000911c g     F .text	0000000000000074 mbedtls_mpi_div_int
000000000000a7e8 g     F .text	00000000000000dc mbedtls_mpi_is_prime_ext
0000000000005110 g     F .text	0000000000000084 TEE_BigIntIsProbablePrime
0000000000008934 g     F .text	00000000000000a8 mbedtls_mpi_mul_int
0000000000009628 g     F .text	00000000000006cc mbedtls_mpi_exp_mod
000000000000b2dc g     F .text	00000000000000bc mbedtls_mpi_safe_cond_assign
00000000000059c4 g     F .text	000000000000025c TEE_GetPropertyAsString
000000000000b494 g     F .text	00000000000000f8 mbedtls_mpi_lt_mpi_ct
0000000000003ba0 g     F .text	0000000000000060 TEE_BigIntInit
0000000000003da0 g     F .text	0000000000000060 __GP11_TEE_BigIntConvertToOctetString
0000000000004598 g     F .text	0000000000000050 TEE_BigIntAssign
0000000000005514 g     F .text	000000000000004c __utee_check_outstring_annotation
0000000000002f00 g     F .text	0000000000000004 TEE_MemMove
000000000000b808 g     F .text	0000000000000020 mbedtls_platform_zeroize
0000000000003c08 g     F .text	00000000000000c8 TEE_BigIntConvertFromOctetString
0000000000002154 g     F .text	000000000000000c _utee_authenc_dec_final
000000000000812c g     F .text	000000000000009c mbedtls_mpi_cmp_abs
00000000000021e4 g     F .text	000000000000000c _utee_storage_obj_read
00000000000013b8 g     F .text	000000000000002c memchr
0000000000002664 g     F .text	0000000000000060 TEE_UnmaskCancellation
000000000000ac20 g     F .text	0000000000000428 mbedtls_mpi_self_test
0000000000005498 g     F .text	000000000000004c __utee_check_gp11_outbuf_annotation
0000000000002208 g     F .text	000000000000000c _utee_storage_obj_seek
0000000000001ff8 g     F .text	000000000000000c _utee_check_access_rights
0000000000002d68 g     F .text	0000000000000178 __GP11_TEE_InvokeTACommand
000000000000829c g     F .text	0000000000000074 mbedtls_mpi_cmp_int
0000000000006d94 g     F .text	0000000000000124 _base64_dec
00000000000021c0 g     F .text	000000000000000c _utee_storage_reset_enum
000000000000b220 g     F .text	00000000000000bc mbedtls_ct_base64_dec_value
00000000000055cc g     F .text	0000000000000024 __utee_check_attr_in_annotation
000000000000213c g     F .text	000000000000000c _utee_authenc_update_payload
00000000000049e0 g     F .text	000000000000006c TEE_BigIntMod
0000000000009244 g     F .text	000000000000009c mbedtls_mpi_mod_int
0000000000007ce4 g     F .text	0000000000000078 mbedtls_mpi_read_binary_le
000000000000482c g     F .text	00000000000001b4 TEE_BigIntDiv
00000000000020d0 g     F .text	000000000000000c _utee_cryp_obj_alloc
000000000001ce60 g       .bss	0000000000000000 __ftrace_buf_start
000000000000c6ec g     F .text	0000000000000058 strlcpy
000000000000b170 g     F .text	00000000000000b0 mbedtls_ct_base64_enc_char
00000000000079a4 g     F .text	00000000000000cc mbedtls_mpi_copy
00000000000061cc g     F .text	00000000000000e8 TEE_GetPropertyAsIdentity
000000000000136c g     F .text	000000000000004c __vsprintf
0000000000005e78 g     F .text	00000000000000e8 TEE_GetPropertyAsU64
0000000000002034 g     F .text	000000000000000c _utee_set_ta_time
0000000000001fe0 g     F .text	000000000000000c _utee_invoke_ta_command
000000000000c1b4 g     F .text	0000000000000018 realloc
0000000000007a70 g     F .text	0000000000000088 mbedtls_mpi_swap
000000000000c744 g     F .text	00000000000000c8 mempool_alloc_pool
0000000000004710 g     F .text	0000000000000114 TEE_BigIntMul
000000000000c220 g     F .text	0000000000000008 raw_malloc_get_ctx_size
0000000000007f5c g     F .text	0000000000000110 mbedtls_mpi_shift_l
00000000000081c8 g     F .text	00000000000000d4 mbedtls_mpi_cmp_mpi
0000000000002f18 g     F .text	0000000000000004 TEE_MemFill
000000000000c4ec g     F .text	0000000000000014 malloc_add_pool
0000000000000268 g     F .text	0000000000000010 trace_get_level
0000000000008310 g     F .text	0000000000000120 mbedtls_mpi_add_abs
00000000000051b4 g     F .text	0000000000000010 TEE_BigIntFMMSizeInU32
0000000000005cb8 g     F .text	00000000000000d8 TEE_GetPropertyAsBool
000000000000c098 g     F .text	00000000000000e8 raw_realloc
0000000000005194 g     F .text	0000000000000004 TEE_BigIntInitFMM
0000000000002088 g     F .text	000000000000000c _utee_cipher_init
0000000000001ac4 g     F .text	0000000000000288 __utee_entry
0000000000005d90 g     F .text	00000000000000e8 TEE_GetPropertyAsU32
000000000000c944 g       .text	0000000000000000 __text_end
0000000000004bcc g     F .text	0000000000000108 TEE_BigIntRelativePrime
0000000000009190 g     F .text	00000000000000b4 mbedtls_mpi_mod_mpi
00000000000020ac g     F .text	000000000000000c _utee_cryp_obj_get_info
000000000000bf04 g     F .text	00000000000000d0 bpool
00000000000062c0 g     F .text	0000000000000048 TEE_AllocatePropertyEnumerator
0000000000002040 g     F .text	000000000000000c _utee_cryp_state_alloc
0000000000002604 g     F .text	0000000000000060 TEE_GetCancellationFlag
0000000000009cf4 g     F .text	00000000000001d8 mbedtls_mpi_gcd
0000000000002ffc g     F .text	0000000000000044 TEE_SetTAPersistentTime
0000000000007de0 g     F .text	00000000000000b8 mbedtls_mpi_write_binary_le
000000000000c6ac g     F .text	000000000000001c memset
000000000000bfd4 g     F .text	0000000000000054 raw_memalign
0000000000002f88 g     F .text	0000000000000074 TEE_GetTAPersistentTime
0000000000000574 g     F .text	0000000000000004 dhex_dump
00000000000026c4 g     F .text	0000000000000060 TEE_MaskCancellation
00000000000020c4 g     F .text	000000000000000c _utee_cryp_obj_get_attr
00000000000020a0 g     F .text	000000000000000c _utee_cipher_final
000000000000024c g     F .text	000000000000001c trace_set_level
000000000000b0e8 g     F .text	000000000000001c mbedtls_ct_mpi_uint_lt
0000000000002058 g     F .text	000000000000000c _utee_cryp_state_free
000000000000c6c8 g     F .text	0000000000000024 strcmp
0000000000001fc8 g     F .text	000000000000000c _utee_open_ta_session
0000000000003eb0 g     F .text	00000000000000bc TEE_BigIntConvertToS32
0000000000004620 g     F .text	000000000000000c TEE_BigIntSub
000000000000022c g     F .text	0000000000000008 tahead_get_trace_level
00000000000021cc g     F .text	000000000000000c _utee_storage_start_enum
0000000000006634 g     F .text	00000000000000b0 tee_map_zi
0000000000009624 g     F .text	0000000000000004 mbedtls_mpi_montred
000000000000c1cc g     F .text	000000000000001c memalign
000000000000b0b0 g     F .text	0000000000000010 mbedtls_ct_uint_mask
0000000000003c00 g     F .text	0000000000000008 __GP11_TEE_BigIntInit
0000000000003e00 g     F .text	00000000000000b0 TEE_BigIntConvertFromS32
00000000000086a0 g     F .text	0000000000000074 mbedtls_mpi_add_int
0000000000002148 g     F .text	000000000000000c _utee_authenc_enc_final
000000000000c500 g     F .text	0000000000000014 malloc_buffer_is_within_alloced
00000000000020dc g     F .text	000000000000000c _utee_cryp_obj_close
00000000000051a0 g     F .text	0000000000000004 TEE_BigIntInitFMMContext
0000000000002010 g     F .text	000000000000000c _utee_mask_cancellation
00000000000115d8 g     O .bss	0000000000000008 __ta_no_share_malloc_ctx
000000000000219c g     F .text	000000000000000c _utee_storage_obj_rename
0000000000002ee0 g     F .text	0000000000000008 __GP11_TEE_CheckMemoryAccessRights
0000000000004824 g     F .text	0000000000000008 TEE_BigIntSquare
00000000000021f0 g     F .text	000000000000000c _utee_storage_obj_write
000000000000010c g     F .text	0000000000000034 TA_CreateEntryPoint
0000000000000218 g     F .text	0000000000000014 __ta_entry
0000000000014e60 g     O .bss	0000000000000000 __ta_no_share_heap
0000000000002130 g     F .text	000000000000000c _utee_authenc_update_aad
0000000000009614 g     F .text	0000000000000008 mbedtls_mpi_montg_init
00000000000006c0 g     F .text	00000000000000cc snprintk
0000000000004474 g     F .text	0000000000000074 TEE_BigIntGetBitCount
0000000000002100 g     F .text	000000000000000c _utee_cryp_obj_copy
0000000000004a64 g     F .text	000000000000000c TEE_BigIntMulMod
000000000000a390 g     F .text	0000000000000458 mbedtls_mpi_inv_mod
00000000000055f0 g     F .text	0000000000000024 __utee_check_gp11_attr_in_annotation
00000000000115e0 g     O .bss	0000000000000040 ta_params
0000000000008be8 g     F .text	0000000000000534 mbedtls_mpi_div_mpi
0000000000005560 g     F .text	000000000000004c __utee_check_gp11_outstring_annotation
0000000000007cc8 g     F .text	000000000000001c mbedtls_mpi_size
000000000000b860 g     F .text	00000000000002c8 bget
00000000000051e4 g     F .text	0000000000000018 __GP11_TEE_BigIntFMMContextSizeInU32
000000000000630c g     F .text	0000000000000010 TEE_StartPropertyEnumerator
000000000000201c g     F .text	000000000000000c _utee_wait
0000000000007b8c g     F .text	000000000000008c mbedtls_mpi_set_bit
0000000000003194 g     F .text	0000000000000060 TEE_Free
000000000000a8c4 g     F .text	0000000000000010 mbedtls_mpi_is_prime
00000000000032e4 g     F .text	0000000000000008 TEE_CacheInvalidate
0000000000006c4c g     F .text	0000000000000014 _assert_break
0000000000004a4c g     F .text	000000000000000c TEE_BigIntAddMod
000000000000b134 g     F .text	000000000000003c mbedtls_ct_mpi_uint_cond_assign
0000000000005198 g     F .text	0000000000000008 __GP11_TEE_BigIntInitFMM
0000000000002028 g     F .text	000000000000000c _utee_get_time
0000000000006444 g     F .text	0000000000000088 TEE_GetPropertyName
00000000000032cc g     F .text	0000000000000008 __GP11_TEE_Realloc
00000000000020f4 g     F .text	000000000000000c _utee_cryp_obj_populate
0000000000002f0c g     F .text	0000000000000004 TEE_MemCompare
0000000000002094 g     F .text	000000000000000c _utee_cipher_update
00000000000005a8 g     F .text	00000000000000c0 __vsnprintf
0000000000011620 g     O .bss	0000000000000010 __elf_phdr_info
0000000000002948 g     F .text	0000000000000154 TEE_OpenTASession
0000000000001420 g     F .text	0000000000000028 trace_ext_puts
0000000000005c20 g     F .text	0000000000000098 __GP11_TEE_GetPropertyAsString
000000000000c39c g     F .text	0000000000000150 raw_malloc_buffer_is_within_alloced
0000000000001448 g     F .text	0000000000000008 trace_ext_get_thread_id
000000000000c31c g     F .text	0000000000000080 raw_malloc_buffer_overlaps_heap
000000000000210c g     F .text	000000000000000c _utee_cryp_derive_key
00000000000076c4 g     F .text	000000000000006c mbedtls_mpi_free
00000000000020e8 g     F .text	000000000000000c _utee_cryp_obj_reset
00000000000032d4 g     F .text	0000000000000008 TEE_CacheClean
0000000000001fbc g     F .text	000000000000000c _utee_get_property_name_to_index
000000000000c048 g     F .text	0000000000000050 raw_calloc
0000000000006c78 g     F .text	000000000000011c _base64_enc
000000000000b398 g     F .text	00000000000000fc mbedtls_mpi_safe_cond_swap
0000000000002124 g     F .text	000000000000000c _utee_authenc_init
00000000000013e4 g     F .text	000000000000001c strlen
0000000000004ea8 g     F .text	0000000000000268 TEE_BigIntComputeExtendedGcd
00000000000021a8 g     F .text	000000000000000c _utee_storage_alloc_enum
0000000000004cd4 g     F .text	00000000000001d4 TEE_BigIntExpMod
0000000000002f24 g     F .text	0000000000000028 TEE_GetSystemTime
000000000000216c g     F .text	000000000000000c _utee_asymm_verify
0000000000000000 g     O .ta_head	0000000000000020 ta_head
000000000000bbb0 g     F .text	0000000000000284 brel
0000000000001ec0 g     F .text	00000000000000c0 __ta_invoke_cmd
0000000000005f60 g     F .text	00000000000000ec __GP11_TEE_GetPropertyAsBinaryBlock
0000000000008430 g     F .text	000000000000015c mbedtls_mpi_sub_abs
0000000000009ecc g     F .text	0000000000000068 mbedtls_mpi_fill_random
0000000000001e14 g     F .text	00000000000000ac __ta_open_sess
0000000000002ee8 g     F .text	000000000000000c TEE_SetInstanceData
0000000000001fec g     F .text	000000000000000c _utee_get_cancellation_flag
00000000000092e0 g     F .text	0000000000000270 mbedtls_mpi_write_string
000000000000c1e8 g     F .text	0000000000000018 aligned_alloc
00000000000051ac g     F .text	0000000000000008 TEE_BigIntInitFMMContext1
00000000000025dc g     F .text	0000000000000028 TEE_CloseTASession
0000000000002184 g     F .text	000000000000000c _utee_storage_obj_create
00000000000051c4 g     F .text	0000000000000018 __GP11_TEE_BigIntFMMSizeInU32
000000000000c200 g     F .text	0000000000000010 free
0000000000014e58 g     O .bss	0000000000000008 mbedtls_mpi_mempool
000000000000207c g     F .text	000000000000000c _utee_hash_final



Disassembly of section .text:

0000000000000020 <memcpy>:
memcpy():
/home/nick2/optee-dependencies/Jetson_Linux_R35.4.1_aarch64/Linux_for_Tegra/sources/tegra/optee-src/nv-optee/optee/optee_os/lib/libutils/isoc/newlib/memcpy.c:106
      20:	f1007c5f 	cmp	x2, #0x1f
      24:	54000629 	b.ls	e8 <memcpy+0xc8>  // b.plast
/home/nick2/optee-dependencies/Jetson_Linux_R35.4.1_aarch64/Linux_for_Tegra/sources/tegra/optee-src/nv-optee/optee/optee_os/lib/libutils/isoc/newlib/memcpy.c:106 (discriminator 1)
      28:	aa000025 	orr	x5, x1, x0
      2c:	f24008a5 	ands	x5, x5, #0x7
      30:	54000641 	b.ne	f8 <memcpy+0xd8>  // b.any
      34:	d1008048 	sub	x8, x2, #0x20
/home/nick2/optee-dependencies/Jetson_Linux_R35.4.1_aarch64/Linux_for_Tegra/sources/tegra/optee-src/nv-optee/optee/optee_os/lib/libutils/isoc/newlib/memcpy.c:108
      38:	aa0103e4 	mov	x4, x1
      3c:	927be908 	and	x8, x8, #0xffffffffffffffe0
/home/nick2/optee-dependencies/Jetson_Linux_R35.4.1_aarch64/Linux_for_Tegra/sources/tegra/optee-src/nv-optee/optee/optee_os/lib/libutils/isoc/newlib/memcpy.c:107
      40:	aa0003e3 	mov	x3, x0
      44:	91008108 	add	x8, x8, #0x20
      48:	8b080007 	add	x7, x0, x8
      4c:	d503201f 	nop
/home/nick2/optee-dependencies/Jetson_Linux_R35.4.1_aarch64/Linux_for_Tegra/sources/tegra/optee-src/nv-optee/optee/optee_os/lib/libutils/isoc/newlib/memcpy.c:112
      50:	f9400086 	ldr	x6, [x4]
      54:	f9000066 	str	x6, [x3]
/home/nick2/optee-dependencies/Jetson_Linux_R35.4.1_aarch64/Linux_for_Tegra/sources/tegra/optee-src/nv-optee/optee/optee_os/lib/libutils/isoc/newlib/memcpy.c:113
      58:	91008084 	add	x4, x4, #0x20
      5c:	91008063 	add	x3, x3, #0x20
      60:	f85e8086 	ldur	x6, [x4, #-24]
      64:	f81e8066 	stur	x6, [x3, #-24]
/home/nick2/optee-dependencies/Jetson_Linux_R35.4.1_aarch64/Linux_for_Tegra/sources/tegra/optee-src/nv-optee/optee/optee_os/lib/libutils/isoc/newlib/memcpy.c:114
      68:	f85f0086 	ldur	x6, [x4, #-16]
      6c:	f81f0066 	stur	x6, [x3, #-16]
/home/nick2/optee-dependencies/Jetson_Linux_R35.4.1_aarch64/Linux_for_Tegra/sources/tegra/optee-src/nv-optee/optee/optee_os/lib/libutils/isoc/newlib/memcpy.c:111
      70:	eb0300ff 	cmp	x7, x3
/home/nick2/optee-dependencies/Jetson_Linux_R35.4.1_aarch64/Linux_for_Tegra/sources/tegra/optee-src/nv-optee/optee/optee_os/lib/libutils/isoc/newlib/memcpy.c:115
      74:	f85f8086 	ldur	x6, [x4, #-8]
      78:	f81f8066 	stur	x6, [x3, #-8]
/home/nick2/optee-dependencies/Jetson_Linux_R35.4.1_aarch64/Linux_for_Tegra/sources/tegra/optee-src/nv-optee/optee/optee_os/lib/libutils/isoc/newlib/memcpy.c:111
      7c:	54fffea1 	b.ne	50 <memcpy+0x30>  // b.any
      80:	8b080021 	add	x1, x1, x8
/home/nick2/optee-dependencies/Jetson_Linux_R35.4.1_aarch64/Linux_for_Tegra/sources/tegra/optee-src/nv-optee/optee/optee_os/lib/libutils/isoc/newlib/memcpy.c:120
      84:	f27d045f 	tst	x2, #0x18
      88:	92401044 	and	x4, x2, #0x1f
      8c:	540003c0 	b.eq	104 <memcpy+0xe4>  // b.none
/home/nick2/optee-dependencies/Jetson_Linux_R35.4.1_aarch64/Linux_for_Tegra/sources/tegra/optee-src/nv-optee/optee/optee_os/lib/libutils/isoc/newlib/memcpy.c:121
      90:	f8656826 	ldr	x6, [x1, x5]
      94:	f8256866 	str	x6, [x3, x5]
/home/nick2/optee-dependencies/Jetson_Linux_R35.4.1_aarch64/Linux_for_Tegra/sources/tegra/optee-src/nv-optee/optee/optee_os/lib/libutils/isoc/newlib/memcpy.c:120
      98:	910020a5 	add	x5, x5, #0x8
      9c:	cb050086 	sub	x6, x4, x5
      a0:	f1001cdf 	cmp	x6, #0x7
      a4:	54ffff68 	b.hi	90 <memcpy+0x70>  // b.pmore
      a8:	d1002084 	sub	x4, x4, #0x8
      ac:	92400842 	and	x2, x2, #0x7
      b0:	927df084 	and	x4, x4, #0xfffffffffffffff8
/home/nick2/optee-dependencies/Jetson_Linux_R35.4.1_aarch64/Linux_for_Tegra/sources/tegra/optee-src/nv-optee/optee/optee_os/lib/libutils/isoc/newlib/memcpy.c:130
      b4:	d1000446 	sub	x6, x2, #0x1
      b8:	91002084 	add	x4, x4, #0x8
      bc:	8b040063 	add	x3, x3, x4
      c0:	8b040021 	add	x1, x1, x4
      c4:	b4000102 	cbz	x2, e4 <memcpy+0xc4>
/home/nick2/optee-dependencies/Jetson_Linux_R35.4.1_aarch64/Linux_for_Tegra/sources/tegra/optee-src/nv-optee/optee/optee_os/lib/libutils/isoc/newlib/memcpy.c:99
      c8:	d2800002 	mov	x2, #0x0                   	// #0
      cc:	d503201f 	nop
/home/nick2/optee-dependencies/Jetson_Linux_R35.4.1_aarch64/Linux_for_Tegra/sources/tegra/optee-src/nv-optee/optee/optee_os/lib/libutils/isoc/newlib/memcpy.c:131
      d0:	38626825 	ldrb	w5, [x1, x2]
/home/nick2/optee-dependencies/Jetson_Linux_R35.4.1_aarch64/Linux_for_Tegra/sources/tegra/optee-src/nv-optee/optee/optee_os/lib/libutils/isoc/newlib/memcpy.c:130
      d4:	eb0200df 	cmp	x6, x2
/home/nick2/optee-dependencies/Jetson_Linux_R35.4.1_aarch64/Linux_for_Tegra/sources/tegra/optee-src/nv-optee/optee/optee_os/lib/libutils/isoc/newlib/memcpy.c:131
      d8:	38226865 	strb	w5, [x3, x2]
/home/nick2/optee-dependencies/Jetson_Linux_R35.4.1_aarch64/Linux_for_Tegra/sources/tegra/optee-src/nv-optee/optee/optee_os/lib/libutils/isoc/newlib/memcpy.c:130
      dc:	91000442 	add	x2, x2, #0x1
      e0:	54ffff81 	b.ne	d0 <memcpy+0xb0>  // b.any
/home/nick2/optee-dependencies/Jetson_Linux_R35.4.1_aarch64/Linux_for_Tegra/sources/tegra/optee-src/nv-optee/optee/optee_os/lib/libutils/isoc/newlib/memcpy.c:135
      e4:	d65f03c0 	ret
/home/nick2/optee-dependencies/Jetson_Linux_R35.4.1_aarch64/Linux_for_Tegra/sources/tegra/optee-src/nv-optee/optee/optee_os/lib/libutils/isoc/newlib/memcpy.c:99
      e8:	aa0003e3 	mov	x3, x0
/home/nick2/optee-dependencies/Jetson_Linux_R35.4.1_aarch64/Linux_for_Tegra/sources/tegra/optee-src/nv-optee/optee/optee_os/lib/libutils/isoc/newlib/memcpy.c:130
      ec:	d1000446 	sub	x6, x2, #0x1
      f0:	b5fffec2 	cbnz	x2, c8 <memcpy+0xa8>
/home/nick2/optee-dependencies/Jetson_Linux_R35.4.1_aarch64/Linux_for_Tegra/sources/tegra/optee-src/nv-optee/optee/optee_os/lib/libutils/isoc/newlib/memcpy.c:135
      f4:	d65f03c0 	ret
/home/nick2/optee-dependencies/Jetson_Linux_R35.4.1_aarch64/Linux_for_Tegra/sources/tegra/optee-src/nv-optee/optee/optee_os/lib/libutils/isoc/newlib/memcpy.c:130
      f8:	d1000446 	sub	x6, x2, #0x1
/home/nick2/optee-dependencies/Jetson_Linux_R35.4.1_aarch64/Linux_for_Tegra/sources/tegra/optee-src/nv-optee/optee/optee_os/lib/libutils/isoc/newlib/memcpy.c:99
      fc:	aa0003e3 	mov	x3, x0
     100:	17fffff2 	b	c8 <memcpy+0xa8>
/home/nick2/optee-dependencies/Jetson_Linux_R35.4.1_aarch64/Linux_for_Tegra/sources/tegra/optee-src/nv-optee/optee/optee_os/lib/libutils/isoc/newlib/memcpy.c:120
     104:	aa0403e2 	mov	x2, x4
     108:	17fffff9 	b	ec <memcpy+0xcc>

000000000000010c <TA_CreateEntryPoint>:
TA_CreateEntryPoint():
/home/nick2/michael/repos/bringupbench-optee-wasm/clean_start/hello_world/ta/hello_world_ta.c:42
     10c:	a9bf7bfd 	stp	x29, x30, [sp, #-16]!
/home/nick2/michael/repos/bringupbench-optee-wasm/clean_start/hello_world/ta/hello_world_ta.c:43
     110:	52800023 	mov	w3, #0x1                   	// #1
     114:	52800062 	mov	w2, #0x3                   	// #3
/home/nick2/michael/repos/bringupbench-optee-wasm/clean_start/hello_world/ta/hello_world_ta.c:42
     118:	910003fd 	mov	x29, sp
/home/nick2/michael/repos/bringupbench-optee-wasm/clean_start/hello_world/ta/hello_world_ta.c:43
     11c:	52800561 	mov	w1, #0x2b                  	// #43
     120:	f0000064 	adrp	x4, f000 <__text_end+0x26bc>
     124:	911b5084 	add	x4, x4, #0x6d4
     128:	f0000060 	adrp	x0, f000 <__text_end+0x26bc>
     12c:	911bf000 	add	x0, x0, #0x6fc
     130:	940000d9 	bl	494 <trace_printf>
/home/nick2/michael/repos/bringupbench-optee-wasm/clean_start/hello_world/ta/hello_world_ta.c:46
     134:	52800000 	mov	w0, #0x0                   	// #0
     138:	a8c17bfd 	ldp	x29, x30, [sp], #16
     13c:	d65f03c0 	ret

0000000000000140 <TA_DestroyEntryPoint>:
TA_DestroyEntryPoint():
/home/nick2/michael/repos/bringupbench-optee-wasm/clean_start/hello_world/ta/hello_world_ta.c:54
     140:	f0000060 	adrp	x0, f000 <__text_end+0x26bc>
     144:	911bf000 	add	x0, x0, #0x6fc
     148:	91005000 	add	x0, x0, #0x14
     14c:	f0000064 	adrp	x4, f000 <__text_end+0x26bc>
     150:	911b5084 	add	x4, x4, #0x6d4
     154:	52800023 	mov	w3, #0x1                   	// #1
     158:	52800062 	mov	w2, #0x3                   	// #3
     15c:	528006c1 	mov	w1, #0x36                  	// #54
     160:	140000cd 	b	494 <trace_printf>

0000000000000164 <__GP11_TA_OpenSessionEntryPoint>:
__GP11_TA_OpenSessionEntryPoint():
/home/nick2/michael/repos/bringupbench-optee-wasm/clean_start/hello_world/ta/hello_world_ta.c:66
     164:	a9be7bfd 	stp	x29, x30, [sp, #-32]!
/home/nick2/michael/repos/bringupbench-optee-wasm/clean_start/hello_world/ta/hello_world_ta.c:72
     168:	f0000064 	adrp	x4, f000 <__text_end+0x26bc>
     16c:	911b5084 	add	x4, x4, #0x6d4
/home/nick2/michael/repos/bringupbench-optee-wasm/clean_start/hello_world/ta/hello_world_ta.c:66
     170:	910003fd 	mov	x29, sp
     174:	a90153f3 	stp	x19, x20, [sp, #16]
/home/nick2/michael/repos/bringupbench-optee-wasm/clean_start/hello_world/ta/hello_world_ta.c:72
     178:	f0000073 	adrp	x19, f000 <__text_end+0x26bc>
     17c:	911bf273 	add	x19, x19, #0x6fc
     180:	9100a673 	add	x19, x19, #0x29
/home/nick2/michael/repos/bringupbench-optee-wasm/clean_start/hello_world/ta/hello_world_ta.c:66
     184:	2a0003f4 	mov	w20, w0
/home/nick2/michael/repos/bringupbench-optee-wasm/clean_start/hello_world/ta/hello_world_ta.c:72
     188:	52800023 	mov	w3, #0x1                   	// #1
     18c:	aa1303e0 	mov	x0, x19
     190:	52800062 	mov	w2, #0x3                   	// #3
     194:	52800901 	mov	w1, #0x48                  	// #72
     198:	940000bf 	bl	494 <trace_printf>
/home/nick2/michael/repos/bringupbench-optee-wasm/clean_start/hello_world/ta/hello_world_ta.c:74
     19c:	35000194 	cbnz	w20, 1cc <__GP11_TA_OpenSessionEntryPoint+0x68>
/home/nick2/michael/repos/bringupbench-optee-wasm/clean_start/hello_world/ta/hello_world_ta.c:85
     1a0:	f0000064 	adrp	x4, f000 <__text_end+0x26bc>
     1a4:	911b9084 	add	x4, x4, #0x6e4
     1a8:	aa1303e0 	mov	x0, x19
     1ac:	52800023 	mov	w3, #0x1                   	// #1
     1b0:	52800042 	mov	w2, #0x2                   	// #2
     1b4:	52800aa1 	mov	w1, #0x55                  	// #85
     1b8:	940000b7 	bl	494 <trace_printf>
/home/nick2/michael/repos/bringupbench-optee-wasm/clean_start/hello_world/ta/hello_world_ta.c:89
     1bc:	2a1403e0 	mov	w0, w20
     1c0:	a94153f3 	ldp	x19, x20, [sp, #16]
     1c4:	a8c27bfd 	ldp	x29, x30, [sp], #32
     1c8:	d65f03c0 	ret
/home/nick2/michael/repos/bringupbench-optee-wasm/clean_start/hello_world/ta/hello_world_ta.c:75
     1cc:	129fff34 	mov	w20, #0xffff0006            	// #-65530
     1d0:	17fffffb 	b	1bc <__GP11_TA_OpenSessionEntryPoint+0x58>

00000000000001d4 <TA_CloseSessionEntryPoint>:
TA_CloseSessionEntryPoint():
/home/nick2/michael/repos/bringupbench-optee-wasm/clean_start/hello_world/ta/hello_world_ta.c:98
     1d4:	f0000060 	adrp	x0, f000 <__text_end+0x26bc>
     1d8:	911bf000 	add	x0, x0, #0x6fc
     1dc:	91012400 	add	x0, x0, #0x49
     1e0:	f0000064 	adrp	x4, f000 <__text_end+0x26bc>
     1e4:	911bc884 	add	x4, x4, #0x6f2
     1e8:	52800023 	mov	w3, #0x1                   	// #1
     1ec:	52800042 	mov	w2, #0x2                   	// #2
     1f0:	52800c41 	mov	w1, #0x62                  	// #98
     1f4:	140000a8 	b	494 <trace_printf>

00000000000001f8 <__GP11_TA_InvokeCommandEntryPoint>:
__GP11_TA_InvokeCommandEntryPoint():
/home/nick2/michael/repos/bringupbench-optee-wasm/clean_start/hello_world/ta/hello_world_ta.c:148
     1f8:	a9bf7bfd 	stp	x29, x30, [sp, #-16]!
/home/nick2/michael/repos/bringupbench-optee-wasm/clean_start/hello_world/ta/hello_world_ta.c:157
     1fc:	52800140 	mov	w0, #0xa                   	// #10
/home/nick2/michael/repos/bringupbench-optee-wasm/clean_start/hello_world/ta/hello_world_ta.c:148
     200:	910003fd 	mov	x29, sp
/home/nick2/michael/repos/bringupbench-optee-wasm/clean_start/hello_world/ta/hello_world_ta.c:157
     204:	94000002 	bl	20c <libmin_abs>
/home/nick2/michael/repos/bringupbench-optee-wasm/clean_start/hello_world/ta/hello_world_ta.c:158
     208:	9400047e 	bl	1400 <abort>

000000000000020c <libmin_abs>:
libmin_abs():
/home/nick2/michael/repos/bringupbench-optee-wasm/clean_start/hello_world/ta/include/common/libmin_abs.c:8
     20c:	7100001f 	cmp	w0, #0x0
/home/nick2/michael/repos/bringupbench-optee-wasm/clean_start/hello_world/ta/include/common/libmin_abs.c:9
     210:	5a80a400 	cneg	w0, w0, lt	// lt = tstop
     214:	d65f03c0 	ret

0000000000000218 <__ta_entry>:
__ta_entry():
/home/nick2/michael/repos/bringupbench-optee-wasm/ta_devkit/src/user_ta_header.c:51
     218:	a9bf7bfd 	stp	x29, x30, [sp, #-16]!
     21c:	910003fd 	mov	x29, sp
/home/nick2/michael/repos/bringupbench-optee-wasm/ta_devkit/src/user_ta_header.c:70
     220:	94000629 	bl	1ac4 <__utee_entry>
/home/nick2/michael/repos/bringupbench-optee-wasm/ta_devkit/src/user_ta_header.c:81
     224:	2a0003e0 	mov	w0, w0
     228:	94000759 	bl	1f8c <_utee_return>

000000000000022c <tahead_get_trace_level>:
tahead_get_trace_level():
/home/nick2/michael/repos/bringupbench-optee-wasm/ta_devkit/src/user_ta_header.c:193
     22c:	52800080 	mov	w0, #0x4                   	// #4
     230:	d65f03c0 	ret

0000000000000234 <TA_OpenSessionEntryPoint>:
TA_OpenSessionEntryPoint():
/home/nick2/michael/repos/bringupbench-optee-wasm/ta_devkit/src/user_ta_header.c:203
     234:	b0000083 	adrp	x3, 11000 <_DYNAMIC>
     238:	f940cc63 	ldr	x3, [x3, #408]
     23c:	140006f6 	b	1e14 <__ta_open_sess>

0000000000000240 <TA_InvokeCommandEntryPoint>:
TA_InvokeCommandEntryPoint():
/home/nick2/michael/repos/bringupbench-optee-wasm/ta_devkit/src/user_ta_header.c:211
     240:	b0000084 	adrp	x4, 11000 <_DYNAMIC>
     244:	f940c084 	ldr	x4, [x4, #384]
     248:	1400071e 	b	1ec0 <__ta_invoke_cmd>

000000000000024c <trace_set_level>:
trace_set_level():
/home/nick2/optee-dependencies/Jetson_Linux_R35.4.1_aarch64/Linux_for_Tegra/sources/tegra/optee-src/nv-optee/optee/optee_os/lib/libutils/ext/trace.c:28
     24c:	7100141f 	cmp	w0, #0x5
     250:	52800081 	mov	w1, #0x4                   	// #4
     254:	1a813000 	csel	w0, w0, w1, cc	// cc = lo, ul, last
     258:	b0000081 	adrp	x1, 11000 <_DYNAMIC>
     25c:	f940a821 	ldr	x1, [x1, #336]
     260:	b9000020 	str	w0, [x1]
/home/nick2/optee-dependencies/Jetson_Linux_R35.4.1_aarch64/Linux_for_Tegra/sources/tegra/optee-src/nv-optee/optee/optee_os/lib/libutils/ext/trace.c:29
     264:	d65f03c0 	ret

0000000000000268 <trace_get_level>:
trace_get_level():
/home/nick2/optee-dependencies/Jetson_Linux_R35.4.1_aarch64/Linux_for_Tegra/sources/tegra/optee-src/nv-optee/optee/optee_os/lib/libutils/ext/trace.c:33
     268:	b0000080 	adrp	x0, 11000 <_DYNAMIC>
/home/nick2/optee-dependencies/Jetson_Linux_R35.4.1_aarch64/Linux_for_Tegra/sources/tegra/optee-src/nv-optee/optee/optee_os/lib/libutils/ext/trace.c:34
     26c:	f940a800 	ldr	x0, [x0, #336]
     270:	b9400000 	ldr	w0, [x0]
     274:	d65f03c0 	ret

0000000000000278 <trace_vprintf>:
trace_vprintf():
/home/nick2/optee-dependencies/Jetson_Linux_R35.4.1_aarch64/Linux_for_Tegra/sources/tegra/optee-src/nv-optee/optee/optee_os/lib/libutils/ext/trace.c:113
     278:	a9a77bfd 	stp	x29, x30, [sp, #-400]!
     27c:	910003fd 	mov	x29, sp
     280:	a9046bf9 	stp	x25, x26, [sp, #64]
     284:	2a0103f9 	mov	w25, w1
     288:	b0000081 	adrp	x1, 11000 <_DYNAMIC>
     28c:	a9025bf5 	stp	x21, x22, [sp, #32]
     290:	aa0003f6 	mov	x22, x0
     294:	aa0103f5 	mov	x21, x1
     298:	f9409820 	ldr	x0, [x1, #304]
     29c:	a90153f3 	stp	x19, x20, [sp, #16]
     2a0:	2a0203f3 	mov	w19, w2
     2a4:	f9400002 	ldr	x2, [x0]
     2a8:	f900c7e2 	str	x2, [sp, #392]
     2ac:	d2800002 	mov	x2, #0x0                   	// #0
     2b0:	a90363f7 	stp	x23, x24, [sp, #48]
     2b4:	aa0403f7 	mov	x23, x4
     2b8:	a90573fb 	stp	x27, x28, [sp, #80]
     2bc:	aa0503f8 	mov	x24, x5
/home/nick2/optee-dependencies/Jetson_Linux_R35.4.1_aarch64/Linux_for_Tegra/sources/tegra/optee-src/nv-optee/optee/optee_os/lib/libutils/ext/trace.c:118
     2c0:	72001c7b 	ands	w27, w3, #0xff
     2c4:	54000b20 	b.eq	428 <trace_vprintf+0x1b0>  // b.none
/home/nick2/optee-dependencies/Jetson_Linux_R35.4.1_aarch64/Linux_for_Tegra/sources/tegra/optee-src/nv-optee/optee/optee_os/lib/libutils/ext/trace.c:118 (discriminator 1)
     2c8:	f940a820 	ldr	x0, [x1, #336]
     2cc:	b9400000 	ldr	w0, [x0]
     2d0:	6b13001f 	cmp	w0, w19
     2d4:	540009cb 	b.lt	40c <trace_vprintf+0x194>  // b.tstop
trace_level_to_string():
/home/nick2/optee-dependencies/Jetson_Linux_R35.4.1_aarch64/Linux_for_Tegra/sources/tegra/optee-src/nv-optee/optee/optee_os/lib/libutils/ext/trace.c:51
     2d8:	7100127f 	cmp	w19, #0x4
/home/nick2/optee-dependencies/Jetson_Linux_R35.4.1_aarch64/Linux_for_Tegra/sources/tegra/optee-src/nv-optee/optee/optee_os/lib/libutils/ext/trace.c:54
     2dc:	f0000060 	adrp	x0, f000 <__text_end+0x26bc>
     2e0:	91236000 	add	x0, x0, #0x8d8
/home/nick2/optee-dependencies/Jetson_Linux_R35.4.1_aarch64/Linux_for_Tegra/sources/tegra/optee-src/nv-optee/optee/optee_os/lib/libutils/ext/trace.c:51
     2e4:	1a9f9261 	csel	w1, w19, wzr, ls	// ls = plast
/home/nick2/optee-dependencies/Jetson_Linux_R35.4.1_aarch64/Linux_for_Tegra/sources/tegra/optee-src/nv-optee/optee/optee_os/lib/libutils/ext/trace.c:54
     2e8:	3861c803 	ldrb	w3, [x0, w1, sxtw]
trace_vprintf():
/home/nick2/optee-dependencies/Jetson_Linux_R35.4.1_aarch64/Linux_for_Tegra/sources/tegra/optee-src/nv-optee/optee/optee_os/lib/libutils/ext/trace.c:122
     2ec:	910223f4 	add	x20, sp, #0x88
     2f0:	f0000062 	adrp	x2, f000 <__text_end+0x26bc>
     2f4:	9122f842 	add	x2, x2, #0x8be
     2f8:	aa1403e0 	mov	x0, x20
     2fc:	d2802001 	mov	x1, #0x100                 	// #256
     300:	940000f0 	bl	6c0 <snprintk>
/home/nick2/optee-dependencies/Jetson_Linux_R35.4.1_aarch64/Linux_for_Tegra/sources/tegra/optee-src/nv-optee/optee/optee_os/lib/libutils/ext/trace.c:124
     304:	37f80840 	tbnz	w0, #31, 40c <trace_vprintf+0x194>
/home/nick2/optee-dependencies/Jetson_Linux_R35.4.1_aarch64/Linux_for_Tegra/sources/tegra/optee-src/nv-optee/optee/optee_os/lib/libutils/ext/trace.c:129
     308:	f940b2a3 	ldr	x3, [x21, #352]
     30c:	d280201c 	mov	x28, #0x100                 	// #256
/home/nick2/optee-dependencies/Jetson_Linux_R35.4.1_aarch64/Linux_for_Tegra/sources/tegra/optee-src/nv-optee/optee/optee_os/lib/libutils/ext/trace.c:126
     310:	93407c1a 	sxtw	x26, w0
/home/nick2/optee-dependencies/Jetson_Linux_R35.4.1_aarch64/Linux_for_Tegra/sources/tegra/optee-src/nv-optee/optee/optee_os/lib/libutils/ext/trace.c:129
     314:	cb20c381 	sub	x1, x28, w0, sxtw
     318:	f0000062 	adrp	x2, f000 <__text_end+0x26bc>
     31c:	91230842 	add	x2, x2, #0x8c2
     320:	8b20c280 	add	x0, x20, w0, sxtw
     324:	940000e7 	bl	6c0 <snprintk>
/home/nick2/optee-dependencies/Jetson_Linux_R35.4.1_aarch64/Linux_for_Tegra/sources/tegra/optee-src/nv-optee/optee/optee_os/lib/libutils/ext/trace.c:131
     328:	37f80720 	tbnz	w0, #31, 40c <trace_vprintf+0x194>
/home/nick2/optee-dependencies/Jetson_Linux_R35.4.1_aarch64/Linux_for_Tegra/sources/tegra/optee-src/nv-optee/optee/optee_os/lib/libutils/ext/trace.c:133
     32c:	8b20c35a 	add	x26, x26, w0, sxtw
/home/nick2/optee-dependencies/Jetson_Linux_R35.4.1_aarch64/Linux_for_Tegra/sources/tegra/optee-src/nv-optee/optee/optee_os/lib/libutils/ext/trace.c:135
     330:	3400093b 	cbz	w27, 454 <trace_vprintf+0x1dc>
/home/nick2/optee-dependencies/Jetson_Linux_R35.4.1_aarch64/Linux_for_Tegra/sources/tegra/optee-src/nv-optee/optee/optee_os/lib/libutils/ext/trace.c:135 (discriminator 1)
     334:	52800342 	mov	w2, #0x1a                  	// #26
     338:	1ad32453 	lsr	w19, w2, w19
     33c:	360008d3 	tbz	w19, #0, 454 <trace_vprintf+0x1dc>
print_thread_id():
/home/nick2/optee-dependencies/Jetson_Linux_R35.4.1_aarch64/Linux_for_Tegra/sources/tegra/optee-src/nv-optee/optee/optee_os/lib/libutils/ext/trace.c:66
     340:	94000442 	bl	1448 <trace_ext_get_thread_id>
trace_vprintf():
/home/nick2/optee-dependencies/Jetson_Linux_R35.4.1_aarch64/Linux_for_Tegra/sources/tegra/optee-src/nv-optee/optee/optee_os/lib/libutils/ext/trace.c:137
     344:	8b1a029b 	add	x27, x20, x26
     348:	cb1a039c 	sub	x28, x28, x26
print_thread_id():
/home/nick2/optee-dependencies/Jetson_Linux_R35.4.1_aarch64/Linux_for_Tegra/sources/tegra/optee-src/nv-optee/optee/optee_os/lib/libutils/ext/trace.c:66
     34c:	2a0003e4 	mov	w4, w0
/home/nick2/optee-dependencies/Jetson_Linux_R35.4.1_aarch64/Linux_for_Tegra/sources/tegra/optee-src/nv-optee/optee/optee_os/lib/libutils/ext/trace.c:68
     350:	37f80700 	tbnz	w0, #31, 430 <trace_vprintf+0x1b8>
/home/nick2/optee-dependencies/Jetson_Linux_R35.4.1_aarch64/Linux_for_Tegra/sources/tegra/optee-src/nv-optee/optee/optee_os/lib/libutils/ext/trace.c:69
     354:	f0000062 	adrp	x2, f000 <__text_end+0x26bc>
     358:	91231842 	add	x2, x2, #0x8c6
     35c:	aa1c03e1 	mov	x1, x28
     360:	aa1b03e0 	mov	x0, x27
     364:	52800043 	mov	w3, #0x2                   	// #2
     368:	940000d6 	bl	6c0 <snprintk>
trace_vprintf():
/home/nick2/optee-dependencies/Jetson_Linux_R35.4.1_aarch64/Linux_for_Tegra/sources/tegra/optee-src/nv-optee/optee/optee_os/lib/libutils/ext/trace.c:144
     36c:	37f80500 	tbnz	w0, #31, 40c <trace_vprintf+0x194>
/home/nick2/optee-dependencies/Jetson_Linux_R35.4.1_aarch64/Linux_for_Tegra/sources/tegra/optee-src/nv-optee/optee/optee_os/lib/libutils/ext/trace.c:146
     370:	8b20c353 	add	x19, x26, w0, sxtw
/home/nick2/optee-dependencies/Jetson_Linux_R35.4.1_aarch64/Linux_for_Tegra/sources/tegra/optee-src/nv-optee/optee/optee_os/lib/libutils/ext/trace.c:148
     374:	b4000176 	cbz	x22, 3a0 <trace_vprintf+0x128>
/home/nick2/optee-dependencies/Jetson_Linux_R35.4.1_aarch64/Linux_for_Tegra/sources/tegra/optee-src/nv-optee/optee/optee_os/lib/libutils/ext/trace.c:149
     378:	f0000062 	adrp	x2, f000 <__text_end+0x26bc>
     37c:	91234442 	add	x2, x2, #0x8d1
     380:	d2802001 	mov	x1, #0x100                 	// #256
     384:	2a1903e4 	mov	w4, w25
     388:	aa1603e3 	mov	x3, x22
     38c:	cb130021 	sub	x1, x1, x19
     390:	8b130280 	add	x0, x20, x19
     394:	940000cb 	bl	6c0 <snprintk>
/home/nick2/optee-dependencies/Jetson_Linux_R35.4.1_aarch64/Linux_for_Tegra/sources/tegra/optee-src/nv-optee/optee/optee_os/lib/libutils/ext/trace.c:151
     398:	37f803a0 	tbnz	w0, #31, 40c <trace_vprintf+0x194>
/home/nick2/optee-dependencies/Jetson_Linux_R35.4.1_aarch64/Linux_for_Tegra/sources/tegra/optee-src/nv-optee/optee/optee_os/lib/libutils/ext/trace.c:153
     39c:	8b20c273 	add	x19, x19, w0, sxtw
/home/nick2/optee-dependencies/Jetson_Linux_R35.4.1_aarch64/Linux_for_Tegra/sources/tegra/optee-src/nv-optee/optee/optee_os/lib/libutils/ext/trace.c:163
     3a0:	910183e3 	add	x3, sp, #0x60
     3a4:	aa1803e1 	mov	x1, x24
     3a8:	aa0303e0 	mov	x0, x3
     3ac:	d2800402 	mov	x2, #0x20                  	// #32
     3b0:	97ffff1c 	bl	20 <memcpy>
     3b4:	aa0003e3 	mov	x3, x0
     3b8:	aa1703e2 	mov	x2, x23
     3bc:	8b130280 	add	x0, x20, x19
     3c0:	d2802001 	mov	x1, #0x100                 	// #256
     3c4:	cb130021 	sub	x1, x1, x19
     3c8:	940000a8 	bl	668 <vsnprintk>
/home/nick2/optee-dependencies/Jetson_Linux_R35.4.1_aarch64/Linux_for_Tegra/sources/tegra/optee-src/nv-optee/optee/optee_os/lib/libutils/ext/trace.c:164
     3cc:	7100001f 	cmp	w0, #0x0
     3d0:	5400004d 	b.le	3d8 <trace_vprintf+0x160>
/home/nick2/optee-dependencies/Jetson_Linux_R35.4.1_aarch64/Linux_for_Tegra/sources/tegra/optee-src/nv-optee/optee/optee_os/lib/libutils/ext/trace.c:165
     3d4:	8b20c273 	add	x19, x19, w0, sxtw
/home/nick2/optee-dependencies/Jetson_Linux_R35.4.1_aarch64/Linux_for_Tegra/sources/tegra/optee-src/nv-optee/optee/optee_os/lib/libutils/ext/trace.c:167
     3d8:	f103fa7f 	cmp	x19, #0xfe
     3dc:	d2801fc0 	mov	x0, #0xfe                  	// #254
     3e0:	9a809273 	csel	x19, x19, x0, ls	// ls = plast
/home/nick2/optee-dependencies/Jetson_Linux_R35.4.1_aarch64/Linux_for_Tegra/sources/tegra/optee-src/nv-optee/optee/optee_os/lib/libutils/ext/trace.c:170
     3e4:	52800140 	mov	w0, #0xa                   	// #10
     3e8:	38336a80 	strb	w0, [x20, x19]
/home/nick2/optee-dependencies/Jetson_Linux_R35.4.1_aarch64/Linux_for_Tegra/sources/tegra/optee-src/nv-optee/optee/optee_os/lib/libutils/ext/trace.c:171
     3ec:	b4000093 	cbz	x19, 3fc <trace_vprintf+0x184>
/home/nick2/optee-dependencies/Jetson_Linux_R35.4.1_aarch64/Linux_for_Tegra/sources/tegra/optee-src/nv-optee/optee/optee_os/lib/libutils/ext/trace.c:171 (discriminator 1)
     3f0:	38736a80 	ldrb	w0, [x20, x19]
     3f4:	7100281f 	cmp	w0, #0xa
     3f8:	540003c0 	b.eq	470 <trace_vprintf+0x1f8>  // b.none
/home/nick2/optee-dependencies/Jetson_Linux_R35.4.1_aarch64/Linux_for_Tegra/sources/tegra/optee-src/nv-optee/optee/optee_os/lib/libutils/ext/trace.c:174
     3fc:	91022be0 	add	x0, sp, #0x8a
     400:	3833681f 	strb	wzr, [x0, x19]
/home/nick2/optee-dependencies/Jetson_Linux_R35.4.1_aarch64/Linux_for_Tegra/sources/tegra/optee-src/nv-optee/optee/optee_os/lib/libutils/ext/trace.c:176
     404:	aa1403e0 	mov	x0, x20
     408:	94000406 	bl	1420 <trace_ext_puts>
/home/nick2/optee-dependencies/Jetson_Linux_R35.4.1_aarch64/Linux_for_Tegra/sources/tegra/optee-src/nv-optee/optee/optee_os/lib/libutils/ext/trace.c:177
     40c:	f9409ab5 	ldr	x21, [x21, #304]
     410:	f940c7e0 	ldr	x0, [sp, #392]
     414:	f94002a1 	ldr	x1, [x21]
     418:	eb010000 	subs	x0, x0, x1
     41c:	d2800001 	mov	x1, #0x0                   	// #0
     420:	540002c0 	b.eq	478 <trace_vprintf+0x200>  // b.none
     424:	94000055 	bl	578 <__stack_chk_fail>
trace_level_to_string():
/home/nick2/optee-dependencies/Jetson_Linux_R35.4.1_aarch64/Linux_for_Tegra/sources/tegra/optee-src/nv-optee/optee/optee_os/lib/libutils/ext/trace.c:49
     428:	528009a3 	mov	w3, #0x4d                  	// #77
     42c:	17ffffb0 	b	2ec <trace_vprintf+0x74>
print_thread_id():
/home/nick2/optee-dependencies/Jetson_Linux_R35.4.1_aarch64/Linux_for_Tegra/sources/tegra/optee-src/nv-optee/optee/optee_os/lib/libutils/ext/trace.c:71
     430:	aa1c03e1 	mov	x1, x28
     434:	aa1b03e0 	mov	x0, x27
     438:	f0000064 	adrp	x4, f000 <__text_end+0x26bc>
     43c:	911bc484 	add	x4, x4, #0x6f1
     440:	52800043 	mov	w3, #0x2                   	// #2
     444:	f0000062 	adrp	x2, f000 <__text_end+0x26bc>
     448:	91233042 	add	x2, x2, #0x8cc
     44c:	9400009d 	bl	6c0 <snprintk>
     450:	17ffffc7 	b	36c <trace_vprintf+0xf4>
trace_vprintf():
/home/nick2/optee-dependencies/Jetson_Linux_R35.4.1_aarch64/Linux_for_Tegra/sources/tegra/optee-src/nv-optee/optee/optee_os/lib/libutils/ext/trace.c:157
     454:	f103fb5f 	cmp	x26, #0xfe
     458:	54fffda8 	b.hi	40c <trace_vprintf+0x194>  // b.pmore
/home/nick2/optee-dependencies/Jetson_Linux_R35.4.1_aarch64/Linux_for_Tegra/sources/tegra/optee-src/nv-optee/optee/optee_os/lib/libutils/ext/trace.c:159
     45c:	91000753 	add	x19, x26, #0x1
     460:	52800400 	mov	w0, #0x20                  	// #32
     464:	383a6a80 	strb	w0, [x20, x26]
/home/nick2/optee-dependencies/Jetson_Linux_R35.4.1_aarch64/Linux_for_Tegra/sources/tegra/optee-src/nv-optee/optee/optee_os/lib/libutils/ext/trace.c:160
     468:	38336a9f 	strb	wzr, [x20, x19]
     46c:	17ffffcd 	b	3a0 <trace_vprintf+0x128>
/home/nick2/optee-dependencies/Jetson_Linux_R35.4.1_aarch64/Linux_for_Tegra/sources/tegra/optee-src/nv-optee/optee/optee_os/lib/libutils/ext/trace.c:172
     470:	d1000673 	sub	x19, x19, #0x1
     474:	17ffffde 	b	3ec <trace_vprintf+0x174>
/home/nick2/optee-dependencies/Jetson_Linux_R35.4.1_aarch64/Linux_for_Tegra/sources/tegra/optee-src/nv-optee/optee/optee_os/lib/libutils/ext/trace.c:177
     478:	a94153f3 	ldp	x19, x20, [sp, #16]
     47c:	a9425bf5 	ldp	x21, x22, [sp, #32]
     480:	a94363f7 	ldp	x23, x24, [sp, #48]
     484:	a9446bf9 	ldp	x25, x26, [sp, #64]
     488:	a94573fb 	ldp	x27, x28, [sp, #80]
     48c:	a8d97bfd 	ldp	x29, x30, [sp], #400
     490:	d65f03c0 	ret

0000000000000494 <trace_printf>:
trace_printf():
/home/nick2/optee-dependencies/Jetson_Linux_R35.4.1_aarch64/Linux_for_Tegra/sources/tegra/optee-src/nv-optee/optee/optee_os/lib/libutils/ext/trace.c:104
     494:	a9ad7bfd 	stp	x29, x30, [sp, #-304]!
     498:	910003fd 	mov	x29, sp
     49c:	a90153f3 	stp	x19, x20, [sp, #16]
     4a0:	b0000093 	adrp	x19, 11000 <_DYNAMIC>
     4a4:	aa0003f4 	mov	x20, x0
     4a8:	f9409a73 	ldr	x19, [x19, #304]
     4ac:	3d8027e0 	str	q0, [sp, #144]
     4b0:	3d802be1 	str	q1, [sp, #160]
     4b4:	3d802fe2 	str	q2, [sp, #176]
     4b8:	3d8033e3 	str	q3, [sp, #192]
     4bc:	3d8037e4 	str	q4, [sp, #208]
     4c0:	3d803be5 	str	q5, [sp, #224]
     4c4:	3d803fe6 	str	q6, [sp, #240]
     4c8:	3d8043e7 	str	q7, [sp, #256]
     4cc:	a9119be5 	stp	x5, x6, [sp, #280]
/home/nick2/optee-dependencies/Jetson_Linux_R35.4.1_aarch64/Linux_for_Tegra/sources/tegra/optee-src/nv-optee/optee/optee_os/lib/libutils/ext/trace.c:108
     4d0:	910103e5 	add	x5, sp, #0x40
/home/nick2/optee-dependencies/Jetson_Linux_R35.4.1_aarch64/Linux_for_Tegra/sources/tegra/optee-src/nv-optee/optee/optee_os/lib/libutils/ext/trace.c:104
     4d4:	f90097e7 	str	x7, [sp, #296]
     4d8:	a9025bf5 	stp	x21, x22, [sp, #32]
     4dc:	2a0103f5 	mov	w21, w1
     4e0:	f9400260 	ldr	x0, [x19]
     4e4:	f90047e0 	str	x0, [sp, #136]
     4e8:	d2800000 	mov	x0, #0x0                   	// #0
/home/nick2/optee-dependencies/Jetson_Linux_R35.4.1_aarch64/Linux_for_Tegra/sources/tegra/optee-src/nv-optee/optee/optee_os/lib/libutils/ext/trace.c:107
     4ec:	9104c3e0 	add	x0, sp, #0x130
     4f0:	a90683e0 	stp	x0, x0, [sp, #104]
     4f4:	910443e0 	add	x0, sp, #0x110
     4f8:	f9003fe0 	str	x0, [sp, #120]
     4fc:	128002e0 	mov	w0, #0xffffffe8            	// #-24
     500:	b90083e0 	str	w0, [sp, #128]
     504:	12800fe0 	mov	w0, #0xffffff80            	// #-128
/home/nick2/optee-dependencies/Jetson_Linux_R35.4.1_aarch64/Linux_for_Tegra/sources/tegra/optee-src/nv-optee/optee/optee_os/lib/libutils/ext/trace.c:104
     508:	2a0203f6 	mov	w22, w2
/home/nick2/optee-dependencies/Jetson_Linux_R35.4.1_aarch64/Linux_for_Tegra/sources/tegra/optee-src/nv-optee/optee/optee_os/lib/libutils/ext/trace.c:108
     50c:	9101a3e1 	add	x1, sp, #0x68
     510:	d2800402 	mov	x2, #0x20                  	// #32
/home/nick2/optee-dependencies/Jetson_Linux_R35.4.1_aarch64/Linux_for_Tegra/sources/tegra/optee-src/nv-optee/optee/optee_os/lib/libutils/ext/trace.c:104
     514:	a90363f7 	stp	x23, x24, [sp, #48]
     518:	12001c78 	and	w24, w3, #0xff
     51c:	aa0403f7 	mov	x23, x4
/home/nick2/optee-dependencies/Jetson_Linux_R35.4.1_aarch64/Linux_for_Tegra/sources/tegra/optee-src/nv-optee/optee/optee_os/lib/libutils/ext/trace.c:107
     520:	b90087e0 	str	w0, [sp, #132]
/home/nick2/optee-dependencies/Jetson_Linux_R35.4.1_aarch64/Linux_for_Tegra/sources/tegra/optee-src/nv-optee/optee/optee_os/lib/libutils/ext/trace.c:108
     524:	aa0503e0 	mov	x0, x5
     528:	97fffebe 	bl	20 <memcpy>
     52c:	2a1503e1 	mov	w1, w21
     530:	aa0003e5 	mov	x5, x0
     534:	aa1703e4 	mov	x4, x23
     538:	aa1403e0 	mov	x0, x20
     53c:	2a1803e3 	mov	w3, w24
     540:	2a1603e2 	mov	w2, w22
     544:	97ffff4d 	bl	278 <trace_vprintf>
/home/nick2/optee-dependencies/Jetson_Linux_R35.4.1_aarch64/Linux_for_Tegra/sources/tegra/optee-src/nv-optee/optee/optee_os/lib/libutils/ext/trace.c:110
     548:	f94047e0 	ldr	x0, [sp, #136]
     54c:	f9400261 	ldr	x1, [x19]
     550:	eb010000 	subs	x0, x0, x1
     554:	d2800001 	mov	x1, #0x0                   	// #0
     558:	54000040 	b.eq	560 <trace_printf+0xcc>  // b.none
     55c:	94000007 	bl	578 <__stack_chk_fail>
     560:	a94153f3 	ldp	x19, x20, [sp, #16]
     564:	a9425bf5 	ldp	x21, x22, [sp, #32]
     568:	a94363f7 	ldp	x23, x24, [sp, #48]
     56c:	a8d37bfd 	ldp	x29, x30, [sp], #304
     570:	d65f03c0 	ret

0000000000000574 <dhex_dump>:
dhex_dump():
/home/nick2/optee-dependencies/Jetson_Linux_R35.4.1_aarch64/Linux_for_Tegra/sources/tegra/optee-src/nv-optee/optee/optee_os/lib/libutils/ext/trace.c:287
     574:	d65f03c0 	ret

0000000000000578 <__stack_chk_fail>:
__stack_chk_fail():
/home/nick2/optee-dependencies/Jetson_Linux_R35.4.1_aarch64/Linux_for_Tegra/sources/tegra/optee-src/nv-optee/optee/optee_os/lib/libutils/isoc/stack_check.c:24
     578:	a9bf7bfd 	stp	x29, x30, [sp, #-16]!
/home/nick2/optee-dependencies/Jetson_Linux_R35.4.1_aarch64/Linux_for_Tegra/sources/tegra/optee-src/nv-optee/optee/optee_os/lib/libutils/isoc/stack_check.c:25
     57c:	f0000064 	adrp	x4, f000 <__text_end+0x26bc>
     580:	91237484 	add	x4, x4, #0x8dd
/home/nick2/optee-dependencies/Jetson_Linux_R35.4.1_aarch64/Linux_for_Tegra/sources/tegra/optee-src/nv-optee/optee/optee_os/lib/libutils/isoc/stack_check.c:24
     584:	910003fd 	mov	x29, sp
/home/nick2/optee-dependencies/Jetson_Linux_R35.4.1_aarch64/Linux_for_Tegra/sources/tegra/optee-src/nv-optee/optee/optee_os/lib/libutils/isoc/stack_check.c:25
     588:	52800023 	mov	w3, #0x1                   	// #1
     58c:	52800022 	mov	w2, #0x1                   	// #1
     590:	52800001 	mov	w1, #0x0                   	// #0
     594:	d2800000 	mov	x0, #0x0                   	// #0
     598:	97ffffbf 	bl	494 <trace_printf>
/home/nick2/optee-dependencies/Jetson_Linux_R35.4.1_aarch64/Linux_for_Tegra/sources/tegra/optee-src/nv-optee/optee/optee_os/lib/libutils/isoc/stack_check.c:27 (discriminator 1)
     59c:	1299fe00 	mov	w0, #0xffff300f            	// #-53233
     5a0:	94000678 	bl	1f80 <_utee_panic>
/home/nick2/optee-dependencies/Jetson_Linux_R35.4.1_aarch64/Linux_for_Tegra/sources/tegra/optee-src/nv-optee/optee/optee_os/lib/libutils/isoc/stack_check.c:26 (discriminator 1)
     5a4:	17fffffe 	b	59c <__stack_chk_fail+0x24>

00000000000005a8 <__vsnprintf>:
__vsnprintf():
/home/nick2/optee-dependencies/Jetson_Linux_R35.4.1_aarch64/Linux_for_Tegra/sources/tegra/optee-src/nv-optee/optee/optee_os/lib/libutils/ext/snprintk.c:138
     5a8:	a9b97bfd 	stp	x29, x30, [sp, #-112]!
     5ac:	b0000085 	adrp	x5, 11000 <_DYNAMIC>
     5b0:	910003fd 	mov	x29, sp
     5b4:	f94098a5 	ldr	x5, [x5, #304]
     5b8:	a90153f3 	stp	x19, x20, [sp, #16]
     5bc:	aa0003f3 	mov	x19, x0
     5c0:	aa0103f4 	mov	x20, x1
     5c4:	f94000a0 	ldr	x0, [x5]
     5c8:	f90037e0 	str	x0, [sp, #104]
     5cc:	d2800000 	mov	x0, #0x0                   	// #0
     5d0:	aa0303e1 	mov	x1, x3
/home/nick2/optee-dependencies/Jetson_Linux_R35.4.1_aarch64/Linux_for_Tegra/sources/tegra/optee-src/nv-optee/optee/optee_os/lib/libutils/ext/snprintk.c:143
     5d4:	910103e0 	add	x0, sp, #0x40
/home/nick2/optee-dependencies/Jetson_Linux_R35.4.1_aarch64/Linux_for_Tegra/sources/tegra/optee-src/nv-optee/optee/optee_os/lib/libutils/ext/snprintk.c:138
     5d8:	a9025bf5 	stp	x21, x22, [sp, #32]
     5dc:	aa0203f5 	mov	x21, x2
/home/nick2/optee-dependencies/Jetson_Linux_R35.4.1_aarch64/Linux_for_Tegra/sources/tegra/optee-src/nv-optee/optee/optee_os/lib/libutils/ext/snprintk.c:142
     5e0:	8b140276 	add	x22, x19, x20
/home/nick2/optee-dependencies/Jetson_Linux_R35.4.1_aarch64/Linux_for_Tegra/sources/tegra/optee-src/nv-optee/optee/optee_os/lib/libutils/ext/snprintk.c:143
     5e4:	d2800402 	mov	x2, #0x20                  	// #32
/home/nick2/optee-dependencies/Jetson_Linux_R35.4.1_aarch64/Linux_for_Tegra/sources/tegra/optee-src/nv-optee/optee/optee_os/lib/libutils/ext/snprintk.c:138
     5e8:	f9001bf7 	str	x23, [sp, #48]
     5ec:	12001c97 	and	w23, w4, #0xff
/home/nick2/optee-dependencies/Jetson_Linux_R35.4.1_aarch64/Linux_for_Tegra/sources/tegra/optee-src/nv-optee/optee/optee_os/lib/libutils/ext/snprintk.c:142
     5f0:	f90033f6 	str	x22, [sp, #96]
/home/nick2/optee-dependencies/Jetson_Linux_R35.4.1_aarch64/Linux_for_Tegra/sources/tegra/optee-src/nv-optee/optee/optee_os/lib/libutils/ext/snprintk.c:143
     5f4:	97fffe8b 	bl	20 <memcpy>
     5f8:	aa0003e3 	mov	x3, x0
     5fc:	2a1703e4 	mov	w4, w23
     600:	aa1303e2 	mov	x2, x19
     604:	910183e1 	add	x1, sp, #0x60
     608:	aa1503e0 	mov	x0, x21
     60c:	94000060 	bl	78c <kprintf.constprop.0>
/home/nick2/optee-dependencies/Jetson_Linux_R35.4.1_aarch64/Linux_for_Tegra/sources/tegra/optee-src/nv-optee/optee/optee_os/lib/libutils/ext/snprintk.c:144
     610:	f100027f 	cmp	x19, #0x0
     614:	fa401a84 	ccmp	x20, #0x0, #0x4, ne	// ne = any
     618:	540000a0 	b.eq	62c <__vsnprintf+0x84>  // b.none
/home/nick2/optee-dependencies/Jetson_Linux_R35.4.1_aarch64/Linux_for_Tegra/sources/tegra/optee-src/nv-optee/optee/optee_os/lib/libutils/ext/snprintk.c:146
     61c:	93407c01 	sxtw	x1, w0
     620:	eb20c29f 	cmp	x20, w0, sxtw
     624:	54000148 	b.hi	64c <__vsnprintf+0xa4>  // b.pmore
/home/nick2/optee-dependencies/Jetson_Linux_R35.4.1_aarch64/Linux_for_Tegra/sources/tegra/optee-src/nv-optee/optee/optee_os/lib/libutils/ext/snprintk.c:147
     628:	381ff2df 	sturb	wzr, [x22, #-1]
/home/nick2/optee-dependencies/Jetson_Linux_R35.4.1_aarch64/Linux_for_Tegra/sources/tegra/optee-src/nv-optee/optee/optee_os/lib/libutils/ext/snprintk.c:152
     62c:	b0000085 	adrp	x5, 11000 <_DYNAMIC>
     630:	f94098a5 	ldr	x5, [x5, #304]
     634:	f94037e1 	ldr	x1, [sp, #104]
     638:	f94000a2 	ldr	x2, [x5]
     63c:	eb020021 	subs	x1, x1, x2
     640:	d2800002 	mov	x2, #0x0                   	// #0
     644:	54000080 	b.eq	654 <__vsnprintf+0xac>  // b.none
     648:	97ffffcc 	bl	578 <__stack_chk_fail>
/home/nick2/optee-dependencies/Jetson_Linux_R35.4.1_aarch64/Linux_for_Tegra/sources/tegra/optee-src/nv-optee/optee/optee_os/lib/libutils/ext/snprintk.c:149
     64c:	38216a7f 	strb	wzr, [x19, x1]
/home/nick2/optee-dependencies/Jetson_Linux_R35.4.1_aarch64/Linux_for_Tegra/sources/tegra/optee-src/nv-optee/optee/optee_os/lib/libutils/ext/snprintk.c:151
     650:	17fffff7 	b	62c <__vsnprintf+0x84>
/home/nick2/optee-dependencies/Jetson_Linux_R35.4.1_aarch64/Linux_for_Tegra/sources/tegra/optee-src/nv-optee/optee/optee_os/lib/libutils/ext/snprintk.c:152
     654:	a94153f3 	ldp	x19, x20, [sp, #16]
     658:	a9425bf5 	ldp	x21, x22, [sp, #32]
     65c:	f9401bf7 	ldr	x23, [sp, #48]
     660:	a8c77bfd 	ldp	x29, x30, [sp], #112
     664:	d65f03c0 	ret

0000000000000668 <vsnprintk>:
vsnprintk():
/home/nick2/optee-dependencies/Jetson_Linux_R35.4.1_aarch64/Linux_for_Tegra/sources/tegra/optee-src/nv-optee/optee/optee_os/lib/libutils/ext/snprintk.c:130
     668:	a9bb7bfd 	stp	x29, x30, [sp, #-80]!
/home/nick2/optee-dependencies/Jetson_Linux_R35.4.1_aarch64/Linux_for_Tegra/sources/tegra/optee-src/nv-optee/optee/optee_os/lib/libutils/ext/snprintk.c:131
     66c:	9100c3e4 	add	x4, sp, #0x30
/home/nick2/optee-dependencies/Jetson_Linux_R35.4.1_aarch64/Linux_for_Tegra/sources/tegra/optee-src/nv-optee/optee/optee_os/lib/libutils/ext/snprintk.c:130
     670:	910003fd 	mov	x29, sp
     674:	a90153f3 	stp	x19, x20, [sp, #16]
     678:	aa0003f3 	mov	x19, x0
     67c:	aa0103f4 	mov	x20, x1
/home/nick2/optee-dependencies/Jetson_Linux_R35.4.1_aarch64/Linux_for_Tegra/sources/tegra/optee-src/nv-optee/optee/optee_os/lib/libutils/ext/snprintk.c:131
     680:	aa0403e0 	mov	x0, x4
/home/nick2/optee-dependencies/Jetson_Linux_R35.4.1_aarch64/Linux_for_Tegra/sources/tegra/optee-src/nv-optee/optee/optee_os/lib/libutils/ext/snprintk.c:130
     684:	aa0303e1 	mov	x1, x3
     688:	f90013f5 	str	x21, [sp, #32]
     68c:	aa0203f5 	mov	x21, x2
/home/nick2/optee-dependencies/Jetson_Linux_R35.4.1_aarch64/Linux_for_Tegra/sources/tegra/optee-src/nv-optee/optee/optee_os/lib/libutils/ext/snprintk.c:131
     690:	d2800402 	mov	x2, #0x20                  	// #32
     694:	97fffe63 	bl	20 <memcpy>
     698:	aa1503e2 	mov	x2, x21
     69c:	aa0003e3 	mov	x3, x0
     6a0:	aa1403e1 	mov	x1, x20
     6a4:	aa1303e0 	mov	x0, x19
     6a8:	52800024 	mov	w4, #0x1                   	// #1
     6ac:	97ffffbf 	bl	5a8 <__vsnprintf>
/home/nick2/optee-dependencies/Jetson_Linux_R35.4.1_aarch64/Linux_for_Tegra/sources/tegra/optee-src/nv-optee/optee/optee_os/lib/libutils/ext/snprintk.c:132
     6b0:	a94153f3 	ldp	x19, x20, [sp, #16]
     6b4:	f94013f5 	ldr	x21, [sp, #32]
     6b8:	a8c57bfd 	ldp	x29, x30, [sp], #80
     6bc:	d65f03c0 	ret

00000000000006c0 <snprintk>:
snprintk():
/home/nick2/optee-dependencies/Jetson_Linux_R35.4.1_aarch64/Linux_for_Tegra/sources/tegra/optee-src/nv-optee/optee/optee_os/lib/libutils/ext/snprintk.c:113
     6c0:	a9ad7bfd 	stp	x29, x30, [sp, #-304]!
     6c4:	910003fd 	mov	x29, sp
     6c8:	a90153f3 	stp	x19, x20, [sp, #16]
     6cc:	b0000093 	adrp	x19, 11000 <_DYNAMIC>
     6d0:	aa0003f4 	mov	x20, x0
     6d4:	f9409a73 	ldr	x19, [x19, #304]
     6d8:	3d8023e0 	str	q0, [sp, #128]
     6dc:	3d8027e1 	str	q1, [sp, #144]
     6e0:	3d802be2 	str	q2, [sp, #160]
     6e4:	3d802fe3 	str	q3, [sp, #176]
     6e8:	3d8033e4 	str	q4, [sp, #192]
     6ec:	3d8037e5 	str	q5, [sp, #208]
     6f0:	3d803be6 	str	q6, [sp, #224]
     6f4:	3d803fe7 	str	q7, [sp, #240]
     6f8:	a91093e3 	stp	x3, x4, [sp, #264]
/home/nick2/optee-dependencies/Jetson_Linux_R35.4.1_aarch64/Linux_for_Tegra/sources/tegra/optee-src/nv-optee/optee/optee_os/lib/libutils/ext/snprintk.c:118
     6fc:	9100c3e3 	add	x3, sp, #0x30
/home/nick2/optee-dependencies/Jetson_Linux_R35.4.1_aarch64/Linux_for_Tegra/sources/tegra/optee-src/nv-optee/optee/optee_os/lib/libutils/ext/snprintk.c:113
     700:	a9119be5 	stp	x5, x6, [sp, #280]
     704:	f90097e7 	str	x7, [sp, #296]
     708:	a9025bf5 	stp	x21, x22, [sp, #32]
     70c:	aa0103f5 	mov	x21, x1
     710:	f9400260 	ldr	x0, [x19]
     714:	f9003fe0 	str	x0, [sp, #120]
     718:	d2800000 	mov	x0, #0x0                   	// #0
/home/nick2/optee-dependencies/Jetson_Linux_R35.4.1_aarch64/Linux_for_Tegra/sources/tegra/optee-src/nv-optee/optee/optee_os/lib/libutils/ext/snprintk.c:117
     71c:	9104c3e0 	add	x0, sp, #0x130
     720:	a90583e0 	stp	x0, x0, [sp, #88]
     724:	910403e0 	add	x0, sp, #0x100
     728:	f90037e0 	str	x0, [sp, #104]
     72c:	128004e0 	mov	w0, #0xffffffd8            	// #-40
     730:	b90073e0 	str	w0, [sp, #112]
     734:	12800fe0 	mov	w0, #0xffffff80            	// #-128
/home/nick2/optee-dependencies/Jetson_Linux_R35.4.1_aarch64/Linux_for_Tegra/sources/tegra/optee-src/nv-optee/optee/optee_os/lib/libutils/ext/snprintk.c:113
     738:	aa0203f6 	mov	x22, x2
/home/nick2/optee-dependencies/Jetson_Linux_R35.4.1_aarch64/Linux_for_Tegra/sources/tegra/optee-src/nv-optee/optee/optee_os/lib/libutils/ext/snprintk.c:118
     73c:	910163e1 	add	x1, sp, #0x58
     740:	d2800402 	mov	x2, #0x20                  	// #32
/home/nick2/optee-dependencies/Jetson_Linux_R35.4.1_aarch64/Linux_for_Tegra/sources/tegra/optee-src/nv-optee/optee/optee_os/lib/libutils/ext/snprintk.c:117
     744:	b90077e0 	str	w0, [sp, #116]
/home/nick2/optee-dependencies/Jetson_Linux_R35.4.1_aarch64/Linux_for_Tegra/sources/tegra/optee-src/nv-optee/optee/optee_os/lib/libutils/ext/snprintk.c:118
     748:	aa0303e0 	mov	x0, x3
     74c:	97fffe35 	bl	20 <memcpy>
     750:	aa1603e2 	mov	x2, x22
     754:	aa0003e3 	mov	x3, x0
     758:	aa1503e1 	mov	x1, x21
     75c:	aa1403e0 	mov	x0, x20
     760:	97ffffc2 	bl	668 <vsnprintk>
/home/nick2/optee-dependencies/Jetson_Linux_R35.4.1_aarch64/Linux_for_Tegra/sources/tegra/optee-src/nv-optee/optee/optee_os/lib/libutils/ext/snprintk.c:122
     764:	f9403fe1 	ldr	x1, [sp, #120]
     768:	f9400262 	ldr	x2, [x19]
     76c:	eb020021 	subs	x1, x1, x2
     770:	d2800002 	mov	x2, #0x0                   	// #0
     774:	54000040 	b.eq	77c <snprintk+0xbc>  // b.none
     778:	97ffff80 	bl	578 <__stack_chk_fail>
     77c:	a94153f3 	ldp	x19, x20, [sp, #16]
     780:	a9425bf5 	ldp	x21, x22, [sp, #32]
     784:	a8d37bfd 	ldp	x29, x30, [sp], #304
     788:	d65f03c0 	ret

000000000000078c <kprintf.constprop.0>:
kprintf():
/home/nick2/optee-dependencies/Jetson_Linux_R35.4.1_aarch64/Linux_for_Tegra/sources/tegra/optee-src/nv-optee/optee/optee_os/lib/libutils/ext/snprintk.c:242
     78c:	d103c3ff 	sub	sp, sp, #0xf0
     790:	aa0103e8 	mov	x8, x1
     794:	a9037bfd 	stp	x29, x30, [sp, #48]
     798:	9100c3fd 	add	x29, sp, #0x30
     79c:	a90873fb 	stp	x27, x28, [sp, #128]
     7a0:	aa0003fb 	mov	x27, x0
     7a4:	12001c80 	and	w0, w4, #0xff
     7a8:	b900a3e0 	str	w0, [sp, #160]
     7ac:	b0000080 	adrp	x0, 11000 <_DYNAMIC>
     7b0:	a90453f3 	stp	x19, x20, [sp, #64]
     7b4:	b9401874 	ldr	w20, [x3, #24]
     7b8:	f9409800 	ldr	x0, [x0, #304]
     7bc:	a9055bf5 	stp	x21, x22, [sp, #80]
     7c0:	aa0203f6 	mov	x22, x2
     7c4:	f9400001 	ldr	x1, [x0]
     7c8:	f90077e1 	str	x1, [sp, #232]
     7cc:	d2800001 	mov	x1, #0x0                   	// #0
     7d0:	a90663f7 	stp	x23, x24, [sp, #96]
     7d4:	a9076bf9 	stp	x25, x26, [sp, #112]
     7d8:	a9406873 	ldp	x19, x26, [x3]
/home/nick2/optee-dependencies/Jetson_Linux_R35.4.1_aarch64/Linux_for_Tegra/sources/tegra/optee-src/nv-optee/optee/optee_os/lib/libutils/ext/snprintk.c:264
     7dc:	b40004c8 	cbz	x8, 874 <kprintf.constprop.0+0xe8>
/home/nick2/optee-dependencies/Jetson_Linux_R35.4.1_aarch64/Linux_for_Tegra/sources/tegra/optee-src/nv-optee/optee/optee_os/lib/libutils/ext/snprintk.c:265
     7e0:	f9400118 	ldr	x24, [x8]
/home/nick2/optee-dependencies/Jetson_Linux_R35.4.1_aarch64/Linux_for_Tegra/sources/tegra/optee-src/nv-optee/optee/optee_os/lib/libutils/ext/snprintk.c:543
     7e4:	910303ec 	add	x12, sp, #0xc0
     7e8:	f0000060 	adrp	x0, f000 <__text_end+0x26bc>
     7ec:	910b2000 	add	x0, x0, #0x2c8
/home/nick2/optee-dependencies/Jetson_Linux_R35.4.1_aarch64/Linux_for_Tegra/sources/tegra/optee-src/nv-optee/optee/optee_os/lib/libutils/ext/snprintk.c:275
     7f0:	d2800017 	mov	x23, #0x0                   	// #0
/home/nick2/optee-dependencies/Jetson_Linux_R35.4.1_aarch64/Linux_for_Tegra/sources/tegra/optee-src/nv-optee/optee/optee_os/lib/libutils/ext/snprintk.c:273
     7f4:	52800019 	mov	w25, #0x0                   	// #0
     7f8:	f9004be0 	str	x0, [sp, #144]
/home/nick2/optee-dependencies/Jetson_Linux_R35.4.1_aarch64/Linux_for_Tegra/sources/tegra/optee-src/nv-optee/optee/optee_os/lib/libutils/ext/snprintk.c:281
     7fc:	39400360 	ldrb	w0, [x27]
     800:	7100941f 	cmp	w0, #0x25
     804:	7a401804 	ccmp	w0, #0x0, #0x4, ne	// ne = any
     808:	540003a1 	b.ne	87c <kprintf.constprop.0+0xf0>  // b.any
/home/nick2/optee-dependencies/Jetson_Linux_R35.4.1_aarch64/Linux_for_Tegra/sources/tegra/optee-src/nv-optee/optee/optee_os/lib/libutils/ext/snprintk.c:285
     80c:	34005260 	cbz	w0, 1258 <kprintf.constprop.0+0xacc>
/home/nick2/optee-dependencies/Jetson_Linux_R35.4.1_aarch64/Linux_for_Tegra/sources/tegra/optee-src/nv-optee/optee/optee_os/lib/libutils/ext/snprintk.c:293
     810:	12800005 	mov	w5, #0xffffffff            	// #-1
     814:	f0000066 	adrp	x6, f000 <__text_end+0x26bc>
     818:	910b90c6 	add	x6, x6, #0x2e4
/home/nick2/optee-dependencies/Jetson_Linux_R35.4.1_aarch64/Linux_for_Tegra/sources/tegra/optee-src/nv-optee/optee/optee_os/lib/libutils/ext/snprintk.c:288
     81c:	9100077b 	add	x27, x27, #0x1
     820:	2a1403e4 	mov	w4, w20
     824:	aa1303e3 	mov	x3, x19
/home/nick2/optee-dependencies/Jetson_Linux_R35.4.1_aarch64/Linux_for_Tegra/sources/tegra/optee-src/nv-optee/optee/optee_os/lib/libutils/ext/snprintk.c:330
     828:	2a0503ee 	mov	w14, w5
/home/nick2/optee-dependencies/Jetson_Linux_R35.4.1_aarch64/Linux_for_Tegra/sources/tegra/optee-src/nv-optee/optee/optee_os/lib/libutils/ext/snprintk.c:294
     82c:	52800001 	mov	w1, #0x0                   	// #0
/home/nick2/optee-dependencies/Jetson_Linux_R35.4.1_aarch64/Linux_for_Tegra/sources/tegra/optee-src/nv-optee/optee/optee_os/lib/libutils/ext/snprintk.c:292
     830:	5280000a 	mov	w10, #0x0                   	// #0
/home/nick2/optee-dependencies/Jetson_Linux_R35.4.1_aarch64/Linux_for_Tegra/sources/tegra/optee-src/nv-optee/optee/optee_os/lib/libutils/ext/snprintk.c:290
     834:	52800015 	mov	w21, #0x0                   	// #0
/home/nick2/optee-dependencies/Jetson_Linux_R35.4.1_aarch64/Linux_for_Tegra/sources/tegra/optee-src/nv-optee/optee/optee_os/lib/libutils/ext/snprintk.c:352
     838:	5280014d 	mov	w13, #0xa                   	// #10
/home/nick2/optee-dependencies/Jetson_Linux_R35.4.1_aarch64/Linux_for_Tegra/sources/tegra/optee-src/nv-optee/optee/optee_os/lib/libutils/ext/snprintk.c:305
     83c:	5280040f 	mov	w15, #0x20                  	// #32
/home/nick2/optee-dependencies/Jetson_Linux_R35.4.1_aarch64/Linux_for_Tegra/sources/tegra/optee-src/nv-optee/optee/optee_os/lib/libutils/ext/snprintk.c:296
     840:	3840177c 	ldrb	w28, [x27], #1
/home/nick2/optee-dependencies/Jetson_Linux_R35.4.1_aarch64/Linux_for_Tegra/sources/tegra/optee-src/nv-optee/optee/optee_os/lib/libutils/ext/snprintk.c:297
     844:	7100e79f 	cmp	w28, #0x39
     848:	5400054c 	b.gt	8f0 <kprintf.constprop.0+0x164>
     84c:	71007f9f 	cmp	w28, #0x1f
     850:	5400502d 	b.le	1254 <kprintf.constprop.0+0xac8>
     854:	51008380 	sub	w0, w28, #0x20
     858:	7100641f 	cmp	w0, #0x19
     85c:	54000508 	b.hi	8fc <kprintf.constprop.0+0x170>  // b.pmore
     860:	f9404be2 	ldr	x2, [sp, #144]
     864:	38604840 	ldrb	w0, [x2, w0, uxtw]
     868:	10000062 	adr	x2, 874 <kprintf.constprop.0+0xe8>
     86c:	8b208840 	add	x0, x2, w0, sxtb #2
     870:	d61f0000 	br	x0
/home/nick2/optee-dependencies/Jetson_Linux_R35.4.1_aarch64/Linux_for_Tegra/sources/tegra/optee-src/nv-optee/optee/optee_os/lib/libutils/ext/snprintk.c:267
     874:	d2800018 	mov	x24, #0x0                   	// #0
     878:	17ffffdb 	b	7e4 <kprintf.constprop.0+0x58>
/home/nick2/optee-dependencies/Jetson_Linux_R35.4.1_aarch64/Linux_for_Tegra/sources/tegra/optee-src/nv-optee/optee/optee_os/lib/libutils/ext/snprintk.c:282
     87c:	11000739 	add	w25, w25, #0x1
/home/nick2/optee-dependencies/Jetson_Linux_R35.4.1_aarch64/Linux_for_Tegra/sources/tegra/optee-src/nv-optee/optee/optee_os/lib/libutils/ext/snprintk.c:283
     880:	b40000b6 	cbz	x22, 894 <kprintf.constprop.0+0x108>
     884:	f100011f 	cmp	x8, #0x0
     888:	fa5812c0 	ccmp	x22, x24, #0x0, ne	// ne = any
     88c:	54000042 	b.cs	894 <kprintf.constprop.0+0x108>  // b.hs, b.nlast
     890:	380016c0 	strb	w0, [x22], #1
/home/nick2/optee-dependencies/Jetson_Linux_R35.4.1_aarch64/Linux_for_Tegra/sources/tegra/optee-src/nv-optee/optee/optee_os/lib/libutils/ext/snprintk.c:281
     894:	9100077b 	add	x27, x27, #0x1
     898:	17ffffd9 	b	7fc <kprintf.constprop.0+0x70>
/home/nick2/optee-dependencies/Jetson_Linux_R35.4.1_aarch64/Linux_for_Tegra/sources/tegra/optee-src/nv-optee/optee/optee_os/lib/libutils/ext/snprintk.c:325
     89c:	52800561 	mov	w1, #0x2b                  	// #43
     8a0:	17ffffe8 	b	840 <kprintf.constprop.0+0xb4>
     8a4:	786058c0 	ldrh	w0, [x6, w0, uxtw #1]
     8a8:	10000062 	adr	x2, 8b4 <kprintf.constprop.0+0x128>
     8ac:	8b20a840 	add	x0, x2, w0, sxth #2
     8b0:	d61f0000 	br	x0
/home/nick2/optee-dependencies/Jetson_Linux_R35.4.1_aarch64/Linux_for_Tegra/sources/tegra/optee-src/nv-optee/optee/optee_os/lib/libutils/ext/snprintk.c:480
     8b4:	f0000077 	adrp	x23, f000 <__text_end+0x26bc>
     8b8:	910d4af7 	add	x23, x23, #0x352
     8bc:	910046f7 	add	x23, x23, #0x11
/home/nick2/optee-dependencies/Jetson_Linux_R35.4.1_aarch64/Linux_for_Tegra/sources/tegra/optee-src/nv-optee/optee/optee_os/lib/libutils/ext/snprintk.c:481
     8c0:	36384515 	tbz	w21, #7, 1160 <kprintf.constprop.0+0x9d4>
     8c4:	37f84644 	tbnz	w4, #31, 118c <kprintf.constprop.0+0xa00>
     8c8:	91003c73 	add	x19, x3, #0xf
     8cc:	2a0403f4 	mov	w20, w4
     8d0:	927df273 	and	x19, x19, #0xfffffffffffffff8
     8d4:	f9400062 	ldr	x2, [x3]
/home/nick2/optee-dependencies/Jetson_Linux_R35.4.1_aarch64/Linux_for_Tegra/sources/tegra/optee-src/nv-optee/optee/optee_os/lib/libutils/ext/snprintk.c:484
     8d8:	36003475 	tbz	w21, #0, f64 <kprintf.constprop.0+0x7d8>
     8dc:	b4003442 	cbz	x2, f64 <kprintf.constprop.0+0x7d8>
/home/nick2/optee-dependencies/Jetson_Linux_R35.4.1_aarch64/Linux_for_Tegra/sources/tegra/optee-src/nv-optee/optee/optee_os/lib/libutils/ext/snprintk.c:485
     8e0:	321f02b5 	orr	w21, w21, #0x2
/home/nick2/optee-dependencies/Jetson_Linux_R35.4.1_aarch64/Linux_for_Tegra/sources/tegra/optee-src/nv-optee/optee/optee_os/lib/libutils/ext/snprintk.c:482
     8e4:	52800040 	mov	w0, #0x2                   	// #2
/home/nick2/optee-dependencies/Jetson_Linux_R35.4.1_aarch64/Linux_for_Tegra/sources/tegra/optee-src/nv-optee/optee/optee_os/lib/libutils/ext/snprintk.c:488
     8e8:	52800001 	mov	w1, #0x0                   	// #0
     8ec:	14000078 	b	acc <kprintf.constprop.0+0x340>
/home/nick2/optee-dependencies/Jetson_Linux_R35.4.1_aarch64/Linux_for_Tegra/sources/tegra/optee-src/nv-optee/optee/optee_os/lib/libutils/ext/snprintk.c:297
     8f0:	51011380 	sub	w0, w28, #0x44
     8f4:	7100d81f 	cmp	w0, #0x36
     8f8:	54fffd69 	b.ls	8a4 <kprintf.constprop.0+0x118>  // b.plast
/home/nick2/optee-dependencies/Jetson_Linux_R35.4.1_aarch64/Linux_for_Tegra/sources/tegra/optee-src/nv-optee/optee/optee_os/lib/libutils/ext/snprintk.c:554
     8fc:	2a0403f4 	mov	w20, w4
     900:	aa0303f3 	mov	x19, x3
/home/nick2/optee-dependencies/Jetson_Linux_R35.4.1_aarch64/Linux_for_Tegra/sources/tegra/optee-src/nv-optee/optee/optee_os/lib/libutils/ext/snprintk.c:551
     904:	390303fc 	strb	w28, [sp, #192]
/home/nick2/optee-dependencies/Jetson_Linux_R35.4.1_aarch64/Linux_for_Tegra/sources/tegra/optee-src/nv-optee/optee/optee_os/lib/libutils/ext/snprintk.c:554
     908:	14000058 	b	a68 <kprintf.constprop.0+0x2dc>
/home/nick2/optee-dependencies/Jetson_Linux_R35.4.1_aarch64/Linux_for_Tegra/sources/tegra/optee-src/nv-optee/optee/optee_os/lib/libutils/ext/snprintk.c:305
     90c:	7100003f 	cmp	w1, #0x0
     910:	1a8f1021 	csel	w1, w1, w15, ne	// ne = any
     914:	17ffffcb 	b	840 <kprintf.constprop.0+0xb4>
/home/nick2/optee-dependencies/Jetson_Linux_R35.4.1_aarch64/Linux_for_Tegra/sources/tegra/optee-src/nv-optee/optee/optee_os/lib/libutils/ext/snprintk.c:308
     918:	320002b5 	orr	w21, w21, #0x1
/home/nick2/optee-dependencies/Jetson_Linux_R35.4.1_aarch64/Linux_for_Tegra/sources/tegra/optee-src/nv-optee/optee/optee_os/lib/libutils/ext/snprintk.c:309
     91c:	17ffffc9 	b	840 <kprintf.constprop.0+0xb4>
/home/nick2/optee-dependencies/Jetson_Linux_R35.4.1_aarch64/Linux_for_Tegra/sources/tegra/optee-src/nv-optee/optee/optee_os/lib/libutils/ext/snprintk.c:317
     920:	37f80124 	tbnz	w4, #31, 944 <kprintf.constprop.0+0x1b8>
     924:	91002c62 	add	x2, x3, #0xb
     928:	aa0303e0 	mov	x0, x3
     92c:	927df043 	and	x3, x2, #0xfffffffffffffff8
     930:	b940000a 	ldr	w10, [x0]
     934:	36fff86a 	tbz	w10, #31, 840 <kprintf.constprop.0+0xb4>
/home/nick2/optee-dependencies/Jetson_Linux_R35.4.1_aarch64/Linux_for_Tegra/sources/tegra/optee-src/nv-optee/optee/optee_os/lib/libutils/ext/snprintk.c:319
     938:	4b0a03ea 	neg	w10, w10
/home/nick2/optee-dependencies/Jetson_Linux_R35.4.1_aarch64/Linux_for_Tegra/sources/tegra/optee-src/nv-optee/optee/optee_os/lib/libutils/ext/snprintk.c:322
     93c:	321e02b5 	orr	w21, w21, #0x4
/home/nick2/optee-dependencies/Jetson_Linux_R35.4.1_aarch64/Linux_for_Tegra/sources/tegra/optee-src/nv-optee/optee/optee_os/lib/libutils/ext/snprintk.c:323
     940:	17ffffc0 	b	840 <kprintf.constprop.0+0xb4>
/home/nick2/optee-dependencies/Jetson_Linux_R35.4.1_aarch64/Linux_for_Tegra/sources/tegra/optee-src/nv-optee/optee/optee_os/lib/libutils/ext/snprintk.c:317
     944:	11002082 	add	w2, w4, #0x8
     948:	7100005f 	cmp	w2, #0x0
     94c:	540000cd 	b.le	964 <kprintf.constprop.0+0x1d8>
     950:	91002c67 	add	x7, x3, #0xb
     954:	aa0303e0 	mov	x0, x3
     958:	2a0203e4 	mov	w4, w2
     95c:	927df0e3 	and	x3, x7, #0xfffffffffffffff8
     960:	17fffff4 	b	930 <kprintf.constprop.0+0x1a4>
     964:	8b24c340 	add	x0, x26, w4, sxtw
     968:	2a0203e4 	mov	w4, w2
     96c:	17fffff1 	b	930 <kprintf.constprop.0+0x1a4>
/home/nick2/optee-dependencies/Jetson_Linux_R35.4.1_aarch64/Linux_for_Tegra/sources/tegra/optee-src/nv-optee/optee/optee_os/lib/libutils/ext/snprintk.c:328
     970:	3840177c 	ldrb	w28, [x27], #1
     974:	7100ab9f 	cmp	w28, #0x2a
     978:	54000341 	b.ne	9e0 <kprintf.constprop.0+0x254>  // b.any
/home/nick2/optee-dependencies/Jetson_Linux_R35.4.1_aarch64/Linux_for_Tegra/sources/tegra/optee-src/nv-optee/optee/optee_os/lib/libutils/ext/snprintk.c:329
     97c:	37f80144 	tbnz	w4, #31, 9a4 <kprintf.constprop.0+0x218>
     980:	91002c62 	add	x2, x3, #0xb
     984:	2a0403e7 	mov	w7, w4
     988:	927df042 	and	x2, x2, #0xfffffffffffffff8
/home/nick2/optee-dependencies/Jetson_Linux_R35.4.1_aarch64/Linux_for_Tegra/sources/tegra/optee-src/nv-optee/optee/optee_os/lib/libutils/ext/snprintk.c:330
     98c:	b9400065 	ldr	w5, [x3]
/home/nick2/optee-dependencies/Jetson_Linux_R35.4.1_aarch64/Linux_for_Tegra/sources/tegra/optee-src/nv-optee/optee/optee_os/lib/libutils/ext/snprintk.c:331
     990:	2a0703e4 	mov	w4, w7
     994:	aa0203e3 	mov	x3, x2
/home/nick2/optee-dependencies/Jetson_Linux_R35.4.1_aarch64/Linux_for_Tegra/sources/tegra/optee-src/nv-optee/optee/optee_os/lib/libutils/ext/snprintk.c:330
     998:	710000bf 	cmp	w5, #0x0
     99c:	1a8ea0a5 	csel	w5, w5, w14, ge	// ge = tcont
/home/nick2/optee-dependencies/Jetson_Linux_R35.4.1_aarch64/Linux_for_Tegra/sources/tegra/optee-src/nv-optee/optee/optee_os/lib/libutils/ext/snprintk.c:331
     9a0:	17ffffa8 	b	840 <kprintf.constprop.0+0xb4>
/home/nick2/optee-dependencies/Jetson_Linux_R35.4.1_aarch64/Linux_for_Tegra/sources/tegra/optee-src/nv-optee/optee/optee_os/lib/libutils/ext/snprintk.c:329
     9a4:	11002087 	add	w7, w4, #0x8
     9a8:	710000ff 	cmp	w7, #0x0
     9ac:	5400008d 	b.le	9bc <kprintf.constprop.0+0x230>
     9b0:	91002c62 	add	x2, x3, #0xb
     9b4:	927df042 	and	x2, x2, #0xfffffffffffffff8
     9b8:	17fffff5 	b	98c <kprintf.constprop.0+0x200>
     9bc:	aa0303e2 	mov	x2, x3
     9c0:	8b24c343 	add	x3, x26, w4, sxtw
     9c4:	17fffff2 	b	98c <kprintf.constprop.0+0x200>
/home/nick2/optee-dependencies/Jetson_Linux_R35.4.1_aarch64/Linux_for_Tegra/sources/tegra/optee-src/nv-optee/optee/optee_os/lib/libutils/ext/snprintk.c:335
     9c8:	1b0d00a5 	madd	w5, w5, w13, w0
/home/nick2/optee-dependencies/Jetson_Linux_R35.4.1_aarch64/Linux_for_Tegra/sources/tegra/optee-src/nv-optee/optee/optee_os/lib/libutils/ext/snprintk.c:336
     9cc:	3840177c 	ldrb	w28, [x27], #1
/home/nick2/optee-dependencies/Jetson_Linux_R35.4.1_aarch64/Linux_for_Tegra/sources/tegra/optee-src/nv-optee/optee/optee_os/lib/libutils/ext/snprintk.c:334
     9d0:	5100c380 	sub	w0, w28, #0x30
     9d4:	7100241f 	cmp	w0, #0x9
     9d8:	54ffff89 	b.ls	9c8 <kprintf.constprop.0+0x23c>  // b.plast
     9dc:	17ffff9a 	b	844 <kprintf.constprop.0+0xb8>
/home/nick2/optee-dependencies/Jetson_Linux_R35.4.1_aarch64/Linux_for_Tegra/sources/tegra/optee-src/nv-optee/optee/optee_os/lib/libutils/ext/snprintk.c:333
     9e0:	52800005 	mov	w5, #0x0                   	// #0
     9e4:	17fffffb 	b	9d0 <kprintf.constprop.0+0x244>
/home/nick2/optee-dependencies/Jetson_Linux_R35.4.1_aarch64/Linux_for_Tegra/sources/tegra/optee-src/nv-optee/optee/optee_os/lib/libutils/ext/snprintk.c:346
     9e8:	321602b5 	orr	w21, w21, #0x400
/home/nick2/optee-dependencies/Jetson_Linux_R35.4.1_aarch64/Linux_for_Tegra/sources/tegra/optee-src/nv-optee/optee/optee_os/lib/libutils/ext/snprintk.c:347
     9ec:	17ffff95 	b	840 <kprintf.constprop.0+0xb4>
/home/nick2/optee-dependencies/Jetson_Linux_R35.4.1_aarch64/Linux_for_Tegra/sources/tegra/optee-src/nv-optee/optee/optee_os/lib/libutils/ext/snprintk.c:297
     9f0:	5280000a 	mov	w10, #0x0                   	// #0
/home/nick2/optee-dependencies/Jetson_Linux_R35.4.1_aarch64/Linux_for_Tegra/sources/tegra/optee-src/nv-optee/optee/optee_os/lib/libutils/ext/snprintk.c:352
     9f4:	5100c39c 	sub	w28, w28, #0x30
     9f8:	1b0d714a 	madd	w10, w10, w13, w28
/home/nick2/optee-dependencies/Jetson_Linux_R35.4.1_aarch64/Linux_for_Tegra/sources/tegra/optee-src/nv-optee/optee/optee_os/lib/libutils/ext/snprintk.c:353
     9fc:	3840177c 	ldrb	w28, [x27], #1
/home/nick2/optee-dependencies/Jetson_Linux_R35.4.1_aarch64/Linux_for_Tegra/sources/tegra/optee-src/nv-optee/optee/optee_os/lib/libutils/ext/snprintk.c:354
     a00:	5100c380 	sub	w0, w28, #0x30
     a04:	7100241f 	cmp	w0, #0x9
     a08:	54ffff69 	b.ls	9f4 <kprintf.constprop.0+0x268>  // b.plast
     a0c:	17ffff8e 	b	844 <kprintf.constprop.0+0xb8>
/home/nick2/optee-dependencies/Jetson_Linux_R35.4.1_aarch64/Linux_for_Tegra/sources/tegra/optee-src/nv-optee/optee/optee_os/lib/libutils/ext/snprintk.c:358
     a10:	321a02b5 	orr	w21, w21, #0x40
/home/nick2/optee-dependencies/Jetson_Linux_R35.4.1_aarch64/Linux_for_Tegra/sources/tegra/optee-src/nv-optee/optee/optee_os/lib/libutils/ext/snprintk.c:359
     a14:	17ffff8b 	b	840 <kprintf.constprop.0+0xb4>
/home/nick2/optee-dependencies/Jetson_Linux_R35.4.1_aarch64/Linux_for_Tegra/sources/tegra/optee-src/nv-optee/optee/optee_os/lib/libutils/ext/snprintk.c:361
     a18:	321902b5 	orr	w21, w21, #0x80
/home/nick2/optee-dependencies/Jetson_Linux_R35.4.1_aarch64/Linux_for_Tegra/sources/tegra/optee-src/nv-optee/optee/optee_os/lib/libutils/ext/snprintk.c:362
     a1c:	17ffff89 	b	840 <kprintf.constprop.0+0xb4>
/home/nick2/optee-dependencies/Jetson_Linux_R35.4.1_aarch64/Linux_for_Tegra/sources/tegra/optee-src/nv-optee/optee/optee_os/lib/libutils/ext/snprintk.c:364
     a20:	39400360 	ldrb	w0, [x27]
     a24:	7101b01f 	cmp	w0, #0x6c
     a28:	54000081 	b.ne	a38 <kprintf.constprop.0+0x2ac>  // b.any
     a2c:	9100077b 	add	x27, x27, #0x1
/home/nick2/optee-dependencies/Jetson_Linux_R35.4.1_aarch64/Linux_for_Tegra/sources/tegra/optee-src/nv-optee/optee/optee_os/lib/libutils/ext/snprintk.c:372
     a30:	321b02b5 	orr	w21, w21, #0x20
/home/nick2/optee-dependencies/Jetson_Linux_R35.4.1_aarch64/Linux_for_Tegra/sources/tegra/optee-src/nv-optee/optee/optee_os/lib/libutils/ext/snprintk.c:373
     a34:	17ffff83 	b	840 <kprintf.constprop.0+0xb4>
/home/nick2/optee-dependencies/Jetson_Linux_R35.4.1_aarch64/Linux_for_Tegra/sources/tegra/optee-src/nv-optee/optee/optee_os/lib/libutils/ext/snprintk.c:368
     a38:	321c02b5 	orr	w21, w21, #0x10
     a3c:	17ffff81 	b	840 <kprintf.constprop.0+0xb4>
/home/nick2/optee-dependencies/Jetson_Linux_R35.4.1_aarch64/Linux_for_Tegra/sources/tegra/optee-src/nv-optee/optee/optee_os/lib/libutils/ext/snprintk.c:375
     a40:	321802b5 	orr	w21, w21, #0x100
/home/nick2/optee-dependencies/Jetson_Linux_R35.4.1_aarch64/Linux_for_Tegra/sources/tegra/optee-src/nv-optee/optee/optee_os/lib/libutils/ext/snprintk.c:376
     a44:	17ffff7f 	b	840 <kprintf.constprop.0+0xb4>
/home/nick2/optee-dependencies/Jetson_Linux_R35.4.1_aarch64/Linux_for_Tegra/sources/tegra/optee-src/nv-optee/optee/optee_os/lib/libutils/ext/snprintk.c:378
     a48:	321702b5 	orr	w21, w21, #0x200
/home/nick2/optee-dependencies/Jetson_Linux_R35.4.1_aarch64/Linux_for_Tegra/sources/tegra/optee-src/nv-optee/optee/optee_os/lib/libutils/ext/snprintk.c:379
     a4c:	17ffff7d 	b	840 <kprintf.constprop.0+0xb4>
/home/nick2/optee-dependencies/Jetson_Linux_R35.4.1_aarch64/Linux_for_Tegra/sources/tegra/optee-src/nv-optee/optee/optee_os/lib/libutils/ext/snprintk.c:381
     a50:	37f80164 	tbnz	w4, #31, a7c <kprintf.constprop.0+0x2f0>
     a54:	91002c73 	add	x19, x3, #0xb
     a58:	2a0403f4 	mov	w20, w4
     a5c:	927df273 	and	x19, x19, #0xfffffffffffffff8
     a60:	b9400060 	ldr	w0, [x3]
     a64:	390303e0 	strb	w0, [sp, #192]
/home/nick2/optee-dependencies/Jetson_Linux_R35.4.1_aarch64/Linux_for_Tegra/sources/tegra/optee-src/nv-optee/optee/optee_os/lib/libutils/ext/snprintk.c:550
     a68:	910303e3 	add	x3, sp, #0xc0
/home/nick2/optee-dependencies/Jetson_Linux_R35.4.1_aarch64/Linux_for_Tegra/sources/tegra/optee-src/nv-optee/optee/optee_os/lib/libutils/ext/snprintk.c:552
     a6c:	52800025 	mov	w5, #0x1                   	// #1
/home/nick2/optee-dependencies/Jetson_Linux_R35.4.1_aarch64/Linux_for_Tegra/sources/tegra/optee-src/nv-optee/optee/optee_os/lib/libutils/ext/snprintk.c:291
     a70:	52800006 	mov	w6, #0x0                   	// #0
/home/nick2/optee-dependencies/Jetson_Linux_R35.4.1_aarch64/Linux_for_Tegra/sources/tegra/optee-src/nv-optee/optee/optee_os/lib/libutils/ext/snprintk.c:553
     a74:	52800001 	mov	w1, #0x0                   	// #0
/home/nick2/optee-dependencies/Jetson_Linux_R35.4.1_aarch64/Linux_for_Tegra/sources/tegra/optee-src/nv-optee/optee/optee_os/lib/libutils/ext/snprintk.c:554
     a78:	140000fa 	b	e60 <kprintf.constprop.0+0x6d4>
/home/nick2/optee-dependencies/Jetson_Linux_R35.4.1_aarch64/Linux_for_Tegra/sources/tegra/optee-src/nv-optee/optee/optee_os/lib/libutils/ext/snprintk.c:381
     a7c:	11002094 	add	w20, w4, #0x8
     a80:	7100029f 	cmp	w20, #0x0
     a84:	5400008d 	b.le	a94 <kprintf.constprop.0+0x308>
     a88:	91002c73 	add	x19, x3, #0xb
     a8c:	927df273 	and	x19, x19, #0xfffffffffffffff8
     a90:	17fffff4 	b	a60 <kprintf.constprop.0+0x2d4>
     a94:	aa0303f3 	mov	x19, x3
     a98:	8b24c343 	add	x3, x26, w4, sxtw
     a9c:	17fffff1 	b	a60 <kprintf.constprop.0+0x2d4>
/home/nick2/optee-dependencies/Jetson_Linux_R35.4.1_aarch64/Linux_for_Tegra/sources/tegra/optee-src/nv-optee/optee/optee_os/lib/libutils/ext/snprintk.c:386
     aa0:	321c02b5 	orr	w21, w21, #0x10
/home/nick2/optee-dependencies/Jetson_Linux_R35.4.1_aarch64/Linux_for_Tegra/sources/tegra/optee-src/nv-optee/optee/optee_os/lib/libutils/ext/snprintk.c:390
     aa4:	363802f5 	tbz	w21, #7, b00 <kprintf.constprop.0+0x374>
     aa8:	37f80424 	tbnz	w4, #31, b2c <kprintf.constprop.0+0x3a0>
     aac:	91003c73 	add	x19, x3, #0xf
     ab0:	2a0403f4 	mov	w20, w4
     ab4:	927df273 	and	x19, x19, #0xfffffffffffffff8
     ab8:	f9400062 	ldr	x2, [x3]
/home/nick2/optee-dependencies/Jetson_Linux_R35.4.1_aarch64/Linux_for_Tegra/sources/tegra/optee-src/nv-optee/optee/optee_os/lib/libutils/ext/snprintk.c:391
     abc:	b6f82e02 	tbz	x2, #63, 107c <kprintf.constprop.0+0x8f0>
/home/nick2/optee-dependencies/Jetson_Linux_R35.4.1_aarch64/Linux_for_Tegra/sources/tegra/optee-src/nv-optee/optee/optee_os/lib/libutils/ext/snprintk.c:392
     ac0:	cb0203e2 	neg	x2, x2
/home/nick2/optee-dependencies/Jetson_Linux_R35.4.1_aarch64/Linux_for_Tegra/sources/tegra/optee-src/nv-optee/optee/optee_os/lib/libutils/ext/snprintk.c:395
     ac4:	52800020 	mov	w0, #0x1                   	// #1
/home/nick2/optee-dependencies/Jetson_Linux_R35.4.1_aarch64/Linux_for_Tegra/sources/tegra/optee-src/nv-optee/optee/optee_os/lib/libutils/ext/snprintk.c:393
     ac8:	528005a1 	mov	w1, #0x2d                  	// #45
/home/nick2/optee-dependencies/Jetson_Linux_R35.4.1_aarch64/Linux_for_Tegra/sources/tegra/optee-src/nv-optee/optee/optee_os/lib/libutils/ext/snprintk.c:494
     acc:	310004bf 	cmn	w5, #0x1
     ad0:	54003a21 	b.ne	1214 <kprintf.constprop.0+0xa88>  // b.any
/home/nick2/optee-dependencies/Jetson_Linux_R35.4.1_aarch64/Linux_for_Tegra/sources/tegra/optee-src/nv-optee/optee/optee_os/lib/libutils/ext/snprintk.c:509
     ad4:	7100041f 	cmp	w0, #0x1
     ad8:	54002d60 	b.eq	1084 <kprintf.constprop.0+0x8f8>  // b.none
     adc:	7100081f 	cmp	w0, #0x2
     ae0:	54000ea1 	b.ne	cb4 <kprintf.constprop.0+0x528>  // b.any
/home/nick2/optee-dependencies/Jetson_Linux_R35.4.1_aarch64/Linux_for_Tegra/sources/tegra/optee-src/nv-optee/optee/optee_os/lib/libutils/ext/snprintk.c:502
     ae4:	91009583 	add	x3, x12, #0x25
/home/nick2/optee-dependencies/Jetson_Linux_R35.4.1_aarch64/Linux_for_Tegra/sources/tegra/optee-src/nv-optee/optee/optee_os/lib/libutils/ext/snprintk.c:531
     ae8:	92400c40 	and	x0, x2, #0xf
/home/nick2/optee-dependencies/Jetson_Linux_R35.4.1_aarch64/Linux_for_Tegra/sources/tegra/optee-src/nv-optee/optee/optee_os/lib/libutils/ext/snprintk.c:532
     aec:	d344fc42 	lsr	x2, x2, #4
/home/nick2/optee-dependencies/Jetson_Linux_R35.4.1_aarch64/Linux_for_Tegra/sources/tegra/optee-src/nv-optee/optee/optee_os/lib/libutils/ext/snprintk.c:531
     af0:	38606ae0 	ldrb	w0, [x23, x0]
     af4:	381ffc60 	strb	w0, [x3, #-1]!
/home/nick2/optee-dependencies/Jetson_Linux_R35.4.1_aarch64/Linux_for_Tegra/sources/tegra/optee-src/nv-optee/optee/optee_os/lib/libutils/ext/snprintk.c:533
     af8:	b5ffff82 	cbnz	x2, ae8 <kprintf.constprop.0+0x35c>
     afc:	1400007b 	b	ce8 <kprintf.constprop.0+0x55c>
/home/nick2/optee-dependencies/Jetson_Linux_R35.4.1_aarch64/Linux_for_Tegra/sources/tegra/optee-src/nv-optee/optee/optee_os/lib/libutils/ext/snprintk.c:390
     b00:	3747fd55 	tbnz	w21, #8, aa8 <kprintf.constprop.0+0x31c>
     b04:	374ffd35 	tbnz	w21, #9, aa8 <kprintf.constprop.0+0x31c>
     b08:	372ffd15 	tbnz	w21, #5, aa8 <kprintf.constprop.0+0x31c>
     b0c:	3727fcf5 	tbnz	w21, #4, aa8 <kprintf.constprop.0+0x31c>
     b10:	36300335 	tbz	w21, #6, b74 <kprintf.constprop.0+0x3e8>
     b14:	37f801e4 	tbnz	w4, #31, b50 <kprintf.constprop.0+0x3c4>
     b18:	91002c73 	add	x19, x3, #0xb
     b1c:	2a0403f4 	mov	w20, w4
     b20:	927df273 	and	x19, x19, #0xfffffffffffffff8
     b24:	79800062 	ldrsh	x2, [x3]
     b28:	17ffffe5 	b	abc <kprintf.constprop.0+0x330>
     b2c:	11002094 	add	w20, w4, #0x8
     b30:	7100029f 	cmp	w20, #0x0
     b34:	5400008d 	b.le	b44 <kprintf.constprop.0+0x3b8>
     b38:	91003c73 	add	x19, x3, #0xf
     b3c:	927df273 	and	x19, x19, #0xfffffffffffffff8
     b40:	17ffffde 	b	ab8 <kprintf.constprop.0+0x32c>
     b44:	aa0303f3 	mov	x19, x3
     b48:	8b24c343 	add	x3, x26, w4, sxtw
     b4c:	17ffffdb 	b	ab8 <kprintf.constprop.0+0x32c>
     b50:	11002094 	add	w20, w4, #0x8
     b54:	7100029f 	cmp	w20, #0x0
     b58:	5400008d 	b.le	b68 <kprintf.constprop.0+0x3dc>
     b5c:	91002c73 	add	x19, x3, #0xb
     b60:	927df273 	and	x19, x19, #0xfffffffffffffff8
     b64:	17fffff0 	b	b24 <kprintf.constprop.0+0x398>
     b68:	aa0303f3 	mov	x19, x3
     b6c:	8b24c343 	add	x3, x26, w4, sxtw
     b70:	17ffffed 	b	b24 <kprintf.constprop.0+0x398>
     b74:	37f800c4 	tbnz	w4, #31, b8c <kprintf.constprop.0+0x400>
     b78:	91002c73 	add	x19, x3, #0xb
     b7c:	2a0403f4 	mov	w20, w4
     b80:	927df273 	and	x19, x19, #0xfffffffffffffff8
     b84:	b9800062 	ldrsw	x2, [x3]
     b88:	17ffffcd 	b	abc <kprintf.constprop.0+0x330>
     b8c:	11002094 	add	w20, w4, #0x8
     b90:	7100029f 	cmp	w20, #0x0
     b94:	5400008d 	b.le	ba4 <kprintf.constprop.0+0x418>
     b98:	91002c73 	add	x19, x3, #0xb
     b9c:	927df273 	and	x19, x19, #0xfffffffffffffff8
     ba0:	17fffff9 	b	b84 <kprintf.constprop.0+0x3f8>
     ba4:	aa0303f3 	mov	x19, x3
     ba8:	8b24c343 	add	x3, x26, w4, sxtw
     bac:	17fffff6 	b	b84 <kprintf.constprop.0+0x3f8>
/home/nick2/optee-dependencies/Jetson_Linux_R35.4.1_aarch64/Linux_for_Tegra/sources/tegra/optee-src/nv-optee/optee/optee_os/lib/libutils/ext/snprintk.c:398
     bb0:	36380135 	tbz	w21, #7, bd4 <kprintf.constprop.0+0x448>
/home/nick2/optee-dependencies/Jetson_Linux_R35.4.1_aarch64/Linux_for_Tegra/sources/tegra/optee-src/nv-optee/optee/optee_os/lib/libutils/ext/snprintk.c:407
     bb4:	37f80284 	tbnz	w4, #31, c04 <kprintf.constprop.0+0x478>
     bb8:	91003c73 	add	x19, x3, #0xf
     bbc:	2a0403f4 	mov	w20, w4
     bc0:	927df273 	and	x19, x19, #0xfffffffffffffff8
     bc4:	f9400060 	ldr	x0, [x3]
     bc8:	93407f21 	sxtw	x1, w25
     bcc:	f9000001 	str	x1, [x0]
     bd0:	17ffff0b 	b	7fc <kprintf.constprop.0+0x70>
/home/nick2/optee-dependencies/Jetson_Linux_R35.4.1_aarch64/Linux_for_Tegra/sources/tegra/optee-src/nv-optee/optee/optee_os/lib/libutils/ext/snprintk.c:400
     bd4:	3747ff15 	tbnz	w21, #8, bb4 <kprintf.constprop.0+0x428>
/home/nick2/optee-dependencies/Jetson_Linux_R35.4.1_aarch64/Linux_for_Tegra/sources/tegra/optee-src/nv-optee/optee/optee_os/lib/libutils/ext/snprintk.c:402
     bd8:	374ffef5 	tbnz	w21, #9, bb4 <kprintf.constprop.0+0x428>
/home/nick2/optee-dependencies/Jetson_Linux_R35.4.1_aarch64/Linux_for_Tegra/sources/tegra/optee-src/nv-optee/optee/optee_os/lib/libutils/ext/snprintk.c:404
     bdc:	372ffed5 	tbnz	w21, #5, bb4 <kprintf.constprop.0+0x428>
/home/nick2/optee-dependencies/Jetson_Linux_R35.4.1_aarch64/Linux_for_Tegra/sources/tegra/optee-src/nv-optee/optee/optee_os/lib/libutils/ext/snprintk.c:406
     be0:	3727feb5 	tbnz	w21, #4, bb4 <kprintf.constprop.0+0x428>
/home/nick2/optee-dependencies/Jetson_Linux_R35.4.1_aarch64/Linux_for_Tegra/sources/tegra/optee-src/nv-optee/optee/optee_os/lib/libutils/ext/snprintk.c:408
     be4:	36300355 	tbz	w21, #6, c4c <kprintf.constprop.0+0x4c0>
/home/nick2/optee-dependencies/Jetson_Linux_R35.4.1_aarch64/Linux_for_Tegra/sources/tegra/optee-src/nv-optee/optee/optee_os/lib/libutils/ext/snprintk.c:409
     be8:	37f80204 	tbnz	w4, #31, c28 <kprintf.constprop.0+0x49c>
     bec:	91003c73 	add	x19, x3, #0xf
     bf0:	2a0403f4 	mov	w20, w4
     bf4:	927df273 	and	x19, x19, #0xfffffffffffffff8
     bf8:	f9400060 	ldr	x0, [x3]
     bfc:	79000019 	strh	w25, [x0]
     c00:	17fffeff 	b	7fc <kprintf.constprop.0+0x70>
/home/nick2/optee-dependencies/Jetson_Linux_R35.4.1_aarch64/Linux_for_Tegra/sources/tegra/optee-src/nv-optee/optee/optee_os/lib/libutils/ext/snprintk.c:407
     c04:	11002094 	add	w20, w4, #0x8
     c08:	7100029f 	cmp	w20, #0x0
     c0c:	5400008d 	b.le	c1c <kprintf.constprop.0+0x490>
     c10:	91003c73 	add	x19, x3, #0xf
     c14:	927df273 	and	x19, x19, #0xfffffffffffffff8
     c18:	17ffffeb 	b	bc4 <kprintf.constprop.0+0x438>
     c1c:	aa0303f3 	mov	x19, x3
     c20:	8b24c343 	add	x3, x26, w4, sxtw
     c24:	17ffffe8 	b	bc4 <kprintf.constprop.0+0x438>
/home/nick2/optee-dependencies/Jetson_Linux_R35.4.1_aarch64/Linux_for_Tegra/sources/tegra/optee-src/nv-optee/optee/optee_os/lib/libutils/ext/snprintk.c:409
     c28:	11002094 	add	w20, w4, #0x8
     c2c:	7100029f 	cmp	w20, #0x0
     c30:	5400008d 	b.le	c40 <kprintf.constprop.0+0x4b4>
     c34:	91003c73 	add	x19, x3, #0xf
     c38:	927df273 	and	x19, x19, #0xfffffffffffffff8
     c3c:	17ffffef 	b	bf8 <kprintf.constprop.0+0x46c>
     c40:	aa0303f3 	mov	x19, x3
     c44:	8b24c343 	add	x3, x26, w4, sxtw
     c48:	17ffffec 	b	bf8 <kprintf.constprop.0+0x46c>
/home/nick2/optee-dependencies/Jetson_Linux_R35.4.1_aarch64/Linux_for_Tegra/sources/tegra/optee-src/nv-optee/optee/optee_os/lib/libutils/ext/snprintk.c:411
     c4c:	37f800e4 	tbnz	w4, #31, c68 <kprintf.constprop.0+0x4dc>
     c50:	91003c73 	add	x19, x3, #0xf
     c54:	2a0403f4 	mov	w20, w4
     c58:	927df273 	and	x19, x19, #0xfffffffffffffff8
     c5c:	f9400060 	ldr	x0, [x3]
     c60:	b9000019 	str	w25, [x0]
     c64:	17fffee6 	b	7fc <kprintf.constprop.0+0x70>
     c68:	11002094 	add	w20, w4, #0x8
     c6c:	7100029f 	cmp	w20, #0x0
     c70:	5400008d 	b.le	c80 <kprintf.constprop.0+0x4f4>
     c74:	91003c73 	add	x19, x3, #0xf
     c78:	927df273 	and	x19, x19, #0xfffffffffffffff8
     c7c:	17fffff8 	b	c5c <kprintf.constprop.0+0x4d0>
     c80:	aa0303f3 	mov	x19, x3
     c84:	8b24c343 	add	x3, x26, w4, sxtw
     c88:	17fffff5 	b	c5c <kprintf.constprop.0+0x4d0>
/home/nick2/optee-dependencies/Jetson_Linux_R35.4.1_aarch64/Linux_for_Tegra/sources/tegra/optee-src/nv-optee/optee/optee_os/lib/libutils/ext/snprintk.c:414
     c8c:	321c02b5 	orr	w21, w21, #0x10
/home/nick2/optee-dependencies/Jetson_Linux_R35.4.1_aarch64/Linux_for_Tegra/sources/tegra/optee-src/nv-optee/optee/optee_os/lib/libutils/ext/snprintk.c:417
     c90:	36380355 	tbz	w21, #7, cf8 <kprintf.constprop.0+0x56c>
     c94:	37f80484 	tbnz	w4, #31, d24 <kprintf.constprop.0+0x598>
     c98:	91003c73 	add	x19, x3, #0xf
     c9c:	2a0403f4 	mov	w20, w4
     ca0:	927df273 	and	x19, x19, #0xfffffffffffffff8
     ca4:	f9400062 	ldr	x2, [x3]
/home/nick2/optee-dependencies/Jetson_Linux_R35.4.1_aarch64/Linux_for_Tegra/sources/tegra/optee-src/nv-optee/optee/optee_os/lib/libutils/ext/snprintk.c:494
     ca8:	310004bf 	cmn	w5, #0x1
     cac:	52800001 	mov	w1, #0x0                   	// #0
     cb0:	54002b01 	b.ne	1210 <kprintf.constprop.0+0xa84>  // b.any
/home/nick2/optee-dependencies/Jetson_Linux_R35.4.1_aarch64/Linux_for_Tegra/sources/tegra/optee-src/nv-optee/optee/optee_os/lib/libutils/ext/snprintk.c:502
     cb4:	91009583 	add	x3, x12, #0x25
/home/nick2/optee-dependencies/Jetson_Linux_R35.4.1_aarch64/Linux_for_Tegra/sources/tegra/optee-src/nv-optee/optee/optee_os/lib/libutils/ext/snprintk.c:512
     cb8:	12000840 	and	w0, w2, #0x7
     cbc:	aa0303e4 	mov	x4, x3
     cc0:	1100c000 	add	w0, w0, #0x30
     cc4:	381ffc60 	strb	w0, [x3, #-1]!
/home/nick2/optee-dependencies/Jetson_Linux_R35.4.1_aarch64/Linux_for_Tegra/sources/tegra/optee-src/nv-optee/optee/optee_os/lib/libutils/ext/snprintk.c:513
     cc8:	d343fc42 	lsr	x2, x2, #3
/home/nick2/optee-dependencies/Jetson_Linux_R35.4.1_aarch64/Linux_for_Tegra/sources/tegra/optee-src/nv-optee/optee/optee_os/lib/libutils/ext/snprintk.c:514
     ccc:	b5ffff62 	cbnz	x2, cb8 <kprintf.constprop.0+0x52c>
/home/nick2/optee-dependencies/Jetson_Linux_R35.4.1_aarch64/Linux_for_Tegra/sources/tegra/optee-src/nv-optee/optee/optee_os/lib/libutils/ext/snprintk.c:516
     cd0:	360000d5 	tbz	w21, #0, ce8 <kprintf.constprop.0+0x55c>
     cd4:	7100c01f 	cmp	w0, #0x30
     cd8:	54000080 	b.eq	ce8 <kprintf.constprop.0+0x55c>  // b.none
/home/nick2/optee-dependencies/Jetson_Linux_R35.4.1_aarch64/Linux_for_Tegra/sources/tegra/optee-src/nv-optee/optee/optee_os/lib/libutils/ext/snprintk.c:517
     cdc:	52800600 	mov	w0, #0x30                  	// #48
     ce0:	381ff060 	sturb	w0, [x3, #-1]
     ce4:	d1000883 	sub	x3, x4, #0x2
/home/nick2/optee-dependencies/Jetson_Linux_R35.4.1_aarch64/Linux_for_Tegra/sources/tegra/optee-src/nv-optee/optee/optee_os/lib/libutils/ext/snprintk.c:543
     ce8:	91009580 	add	x0, x12, #0x25
     cec:	2a0503e6 	mov	w6, w5
     cf0:	4b030005 	sub	w5, w0, w3
     cf4:	1400005b 	b	e60 <kprintf.constprop.0+0x6d4>
/home/nick2/optee-dependencies/Jetson_Linux_R35.4.1_aarch64/Linux_for_Tegra/sources/tegra/optee-src/nv-optee/optee/optee_os/lib/libutils/ext/snprintk.c:417
     cf8:	3747fcf5 	tbnz	w21, #8, c94 <kprintf.constprop.0+0x508>
     cfc:	374ffcd5 	tbnz	w21, #9, c94 <kprintf.constprop.0+0x508>
     d00:	372ffcb5 	tbnz	w21, #5, c94 <kprintf.constprop.0+0x508>
     d04:	3727fc95 	tbnz	w21, #4, c94 <kprintf.constprop.0+0x508>
     d08:	36300335 	tbz	w21, #6, d6c <kprintf.constprop.0+0x5e0>
     d0c:	37f801e4 	tbnz	w4, #31, d48 <kprintf.constprop.0+0x5bc>
     d10:	91002c73 	add	x19, x3, #0xb
     d14:	2a0403f4 	mov	w20, w4
     d18:	927df273 	and	x19, x19, #0xfffffffffffffff8
     d1c:	79400062 	ldrh	w2, [x3]
     d20:	17ffffe2 	b	ca8 <kprintf.constprop.0+0x51c>
     d24:	11002094 	add	w20, w4, #0x8
     d28:	7100029f 	cmp	w20, #0x0
     d2c:	5400008d 	b.le	d3c <kprintf.constprop.0+0x5b0>
     d30:	91003c73 	add	x19, x3, #0xf
     d34:	927df273 	and	x19, x19, #0xfffffffffffffff8
     d38:	17ffffdb 	b	ca4 <kprintf.constprop.0+0x518>
     d3c:	aa0303f3 	mov	x19, x3
     d40:	8b24c343 	add	x3, x26, w4, sxtw
     d44:	17ffffd8 	b	ca4 <kprintf.constprop.0+0x518>
     d48:	11002094 	add	w20, w4, #0x8
     d4c:	7100029f 	cmp	w20, #0x0
     d50:	5400008d 	b.le	d60 <kprintf.constprop.0+0x5d4>
     d54:	91002c73 	add	x19, x3, #0xb
     d58:	927df273 	and	x19, x19, #0xfffffffffffffff8
     d5c:	17fffff0 	b	d1c <kprintf.constprop.0+0x590>
     d60:	aa0303f3 	mov	x19, x3
     d64:	8b24c343 	add	x3, x26, w4, sxtw
     d68:	17ffffed 	b	d1c <kprintf.constprop.0+0x590>
     d6c:	37f800c4 	tbnz	w4, #31, d84 <kprintf.constprop.0+0x5f8>
     d70:	91002c73 	add	x19, x3, #0xb
     d74:	2a0403f4 	mov	w20, w4
     d78:	927df273 	and	x19, x19, #0xfffffffffffffff8
     d7c:	b9400062 	ldr	w2, [x3]
     d80:	17ffffca 	b	ca8 <kprintf.constprop.0+0x51c>
     d84:	11002094 	add	w20, w4, #0x8
     d88:	7100029f 	cmp	w20, #0x0
     d8c:	5400008d 	b.le	d9c <kprintf.constprop.0+0x610>
     d90:	91002c73 	add	x19, x3, #0xb
     d94:	927df273 	and	x19, x19, #0xfffffffffffffff8
     d98:	17fffff9 	b	d7c <kprintf.constprop.0+0x5f0>
     d9c:	aa0303f3 	mov	x19, x3
     da0:	8b24c343 	add	x3, x26, w4, sxtw
     da4:	17fffff6 	b	d7c <kprintf.constprop.0+0x5f0>
/home/nick2/optee-dependencies/Jetson_Linux_R35.4.1_aarch64/Linux_for_Tegra/sources/tegra/optee-src/nv-optee/optee/optee_os/lib/libutils/ext/snprintk.c:421
     da8:	b940a3e0 	ldr	w0, [sp, #160]
     dac:	34000c80 	cbz	w0, f3c <kprintf.constprop.0+0x7b0>
     db0:	39400360 	ldrb	w0, [x27]
     db4:	7101541f 	cmp	w0, #0x55
     db8:	54000c21 	b.ne	f3c <kprintf.constprop.0+0x7b0>  // b.any
     dbc:	39400760 	ldrb	w0, [x27, #1]
     dc0:	7101b01f 	cmp	w0, #0x6c
     dc4:	54000bc1 	b.ne	f3c <kprintf.constprop.0+0x7b0>  // b.any
/home/nick2/optee-dependencies/Jetson_Linux_R35.4.1_aarch64/Linux_for_Tegra/sources/tegra/optee-src/nv-optee/optee/optee_os/lib/libutils/ext/snprintk.c:426
     dc8:	91000b7b 	add	x27, x27, #0x2
/home/nick2/optee-dependencies/Jetson_Linux_R35.4.1_aarch64/Linux_for_Tegra/sources/tegra/optee-src/nv-optee/optee/optee_os/lib/libutils/ext/snprintk.c:427
     dcc:	37f80a64 	tbnz	w4, #31, f18 <kprintf.constprop.0+0x78c>
     dd0:	91003c73 	add	x19, x3, #0xf
     dd4:	2a0403f4 	mov	w20, w4
     dd8:	927df273 	and	x19, x19, #0xfffffffffffffff8
     ddc:	f9400060 	ldr	x0, [x3]
uuid2str():
/home/nick2/optee-dependencies/Jetson_Linux_R35.4.1_aarch64/Linux_for_Tegra/sources/tegra/optee-src/nv-optee/optee/optee_os/lib/libutils/ext/snprintk.c:229
     de0:	f0000062 	adrp	x2, f000 <__text_end+0x26bc>
     de4:	9123f042 	add	x2, x2, #0x8fc
     de8:	f9004fec 	str	x12, [sp, #152]
     dec:	b900a7ea 	str	w10, [sp, #164]
     df0:	39403c01 	ldrb	w1, [x0, #15]
     df4:	39402006 	ldrb	w6, [x0, #8]
     df8:	79400c05 	ldrh	w5, [x0, #6]
     dfc:	39402407 	ldrb	w7, [x0, #9]
     e00:	79400804 	ldrh	w4, [x0, #4]
     e04:	b9002be1 	str	w1, [sp, #40]
     e08:	f90057e8 	str	x8, [sp, #168]
     e0c:	39403801 	ldrb	w1, [x0, #14]
     e10:	b90023e1 	str	w1, [sp, #32]
     e14:	39403401 	ldrb	w1, [x0, #13]
     e18:	b9001be1 	str	w1, [sp, #24]
     e1c:	39403001 	ldrb	w1, [x0, #12]
     e20:	b90013e1 	str	w1, [sp, #16]
     e24:	39402c01 	ldrb	w1, [x0, #11]
     e28:	b9000be1 	str	w1, [sp, #8]
     e2c:	39402801 	ldrb	w1, [x0, #10]
     e30:	b90003e1 	str	w1, [sp]
     e34:	d28004a1 	mov	x1, #0x25                  	// #37
     e38:	b9400003 	ldr	w3, [x0]
     e3c:	aa0c03e0 	mov	x0, x12
     e40:	97fffe20 	bl	6c0 <snprintk>
     e44:	2a0003e5 	mov	w5, w0
kprintf():
/home/nick2/optee-dependencies/Jetson_Linux_R35.4.1_aarch64/Linux_for_Tegra/sources/tegra/optee-src/nv-optee/optee/optee_os/lib/libutils/ext/snprintk.c:429
     e48:	f9404fec 	ldr	x12, [sp, #152]
/home/nick2/optee-dependencies/Jetson_Linux_R35.4.1_aarch64/Linux_for_Tegra/sources/tegra/optee-src/nv-optee/optee/optee_os/lib/libutils/ext/snprintk.c:291
     e4c:	52800006 	mov	w6, #0x0                   	// #0
/home/nick2/optee-dependencies/Jetson_Linux_R35.4.1_aarch64/Linux_for_Tegra/sources/tegra/optee-src/nv-optee/optee/optee_os/lib/libutils/ext/snprintk.c:431
     e50:	b940a7ea 	ldr	w10, [sp, #164]
/home/nick2/optee-dependencies/Jetson_Linux_R35.4.1_aarch64/Linux_for_Tegra/sources/tegra/optee-src/nv-optee/optee/optee_os/lib/libutils/ext/snprintk.c:430
     e54:	52800001 	mov	w1, #0x0                   	// #0
/home/nick2/optee-dependencies/Jetson_Linux_R35.4.1_aarch64/Linux_for_Tegra/sources/tegra/optee-src/nv-optee/optee/optee_os/lib/libutils/ext/snprintk.c:431
     e58:	f94057e8 	ldr	x8, [sp, #168]
/home/nick2/optee-dependencies/Jetson_Linux_R35.4.1_aarch64/Linux_for_Tegra/sources/tegra/optee-src/nv-optee/optee/optee_os/lib/libutils/ext/snprintk.c:429
     e5c:	aa0c03e3 	mov	x3, x12
/home/nick2/optee-dependencies/Jetson_Linux_R35.4.1_aarch64/Linux_for_Tegra/sources/tegra/optee-src/nv-optee/optee/optee_os/lib/libutils/ext/snprintk.c:571
     e60:	6b0500df 	cmp	w6, w5
     e64:	1a85a0c4 	csel	w4, w6, w5, ge	// ge = tcont
/home/nick2/optee-dependencies/Jetson_Linux_R35.4.1_aarch64/Linux_for_Tegra/sources/tegra/optee-src/nv-optee/optee/optee_os/lib/libutils/ext/snprintk.c:572
     e68:	340020c1 	cbz	w1, 1280 <kprintf.constprop.0+0xaf4>
/home/nick2/optee-dependencies/Jetson_Linux_R35.4.1_aarch64/Linux_for_Tegra/sources/tegra/optee-src/nv-optee/optee/optee_os/lib/libutils/ext/snprintk.c:573
     e6c:	11000484 	add	w4, w4, #0x1
/home/nick2/optee-dependencies/Jetson_Linux_R35.4.1_aarch64/Linux_for_Tegra/sources/tegra/optee-src/nv-optee/optee/optee_os/lib/libutils/ext/snprintk.c:578
     e70:	6b0a009f 	cmp	w4, w10
     e74:	1a8aa080 	csel	w0, w4, w10, ge	// ge = tcont
     e78:	0b000339 	add	w25, w25, w0
/home/nick2/optee-dependencies/Jetson_Linux_R35.4.1_aarch64/Linux_for_Tegra/sources/tegra/optee-src/nv-optee/optee/optee_os/lib/libutils/ext/snprintk.c:581
     e7c:	52808080 	mov	w0, #0x404                 	// #1028
     e80:	6a0002a0 	ands	w0, w21, w0
     e84:	540000a1 	b.ne	e98 <kprintf.constprop.0+0x70c>  // b.any
/home/nick2/optee-dependencies/Jetson_Linux_R35.4.1_aarch64/Linux_for_Tegra/sources/tegra/optee-src/nv-optee/optee/optee_os/lib/libutils/ext/snprintk.c:582
     e88:	4b040147 	sub	w7, w10, w4
/home/nick2/optee-dependencies/Jetson_Linux_R35.4.1_aarch64/Linux_for_Tegra/sources/tegra/optee-src/nv-optee/optee/optee_os/lib/libutils/ext/snprintk.c:584
     e8c:	52800402 	mov	w2, #0x20                  	// #32
/home/nick2/optee-dependencies/Jetson_Linux_R35.4.1_aarch64/Linux_for_Tegra/sources/tegra/optee-src/nv-optee/optee/optee_os/lib/libutils/ext/snprintk.c:583
     e90:	710000ff 	cmp	w7, #0x0
     e94:	54001fcc 	b.gt	128c <kprintf.constprop.0+0xb00>
/home/nick2/optee-dependencies/Jetson_Linux_R35.4.1_aarch64/Linux_for_Tegra/sources/tegra/optee-src/nv-optee/optee/optee_os/lib/libutils/ext/snprintk.c:588
     e98:	34002081 	cbz	w1, 12a8 <kprintf.constprop.0+0xb1c>
/home/nick2/optee-dependencies/Jetson_Linux_R35.4.1_aarch64/Linux_for_Tegra/sources/tegra/optee-src/nv-optee/optee/optee_os/lib/libutils/ext/snprintk.c:589
     e9c:	b40000b6 	cbz	x22, eb0 <kprintf.constprop.0+0x724>
     ea0:	f100011f 	cmp	x8, #0x0
     ea4:	fa561302 	ccmp	x24, x22, #0x2, ne	// ne = any
     ea8:	54000049 	b.ls	eb0 <kprintf.constprop.0+0x724>  // b.plast
     eac:	380016c1 	strb	w1, [x22], #1
/home/nick2/optee-dependencies/Jetson_Linux_R35.4.1_aarch64/Linux_for_Tegra/sources/tegra/optee-src/nv-optee/optee/optee_os/lib/libutils/ext/snprintk.c:596
     eb0:	7110001f 	cmp	w0, #0x400
     eb4:	540000a1 	b.ne	ec8 <kprintf.constprop.0+0x73c>  // b.any
/home/nick2/optee-dependencies/Jetson_Linux_R35.4.1_aarch64/Linux_for_Tegra/sources/tegra/optee-src/nv-optee/optee/optee_os/lib/libutils/ext/snprintk.c:597
     eb8:	4b040140 	sub	w0, w10, w4
/home/nick2/optee-dependencies/Jetson_Linux_R35.4.1_aarch64/Linux_for_Tegra/sources/tegra/optee-src/nv-optee/optee/optee_os/lib/libutils/ext/snprintk.c:599
     ebc:	52800601 	mov	w1, #0x30                  	// #48
/home/nick2/optee-dependencies/Jetson_Linux_R35.4.1_aarch64/Linux_for_Tegra/sources/tegra/optee-src/nv-optee/optee/optee_os/lib/libutils/ext/snprintk.c:598
     ec0:	7100001f 	cmp	w0, #0x0
     ec4:	5400216c 	b.gt	12f0 <kprintf.constprop.0+0xb64>
/home/nick2/optee-dependencies/Jetson_Linux_R35.4.1_aarch64/Linux_for_Tegra/sources/tegra/optee-src/nv-optee/optee/optee_os/lib/libutils/ext/snprintk.c:603
     ec8:	4b0500c6 	sub	w6, w6, w5
/home/nick2/optee-dependencies/Jetson_Linux_R35.4.1_aarch64/Linux_for_Tegra/sources/tegra/optee-src/nv-optee/optee/optee_os/lib/libutils/ext/snprintk.c:605
     ecc:	52800600 	mov	w0, #0x30                  	// #48
/home/nick2/optee-dependencies/Jetson_Linux_R35.4.1_aarch64/Linux_for_Tegra/sources/tegra/optee-src/nv-optee/optee/optee_os/lib/libutils/ext/snprintk.c:604
     ed0:	710000df 	cmp	w6, #0x0
     ed4:	540021cc 	b.gt	130c <kprintf.constprop.0+0xb80>
     ed8:	2a0503e5 	mov	w5, w5
     edc:	d2800001 	mov	x1, #0x0                   	// #0
/home/nick2/optee-dependencies/Jetson_Linux_R35.4.1_aarch64/Linux_for_Tegra/sources/tegra/optee-src/nv-optee/optee/optee_os/lib/libutils/ext/snprintk.c:608
     ee0:	eb05003f 	cmp	x1, x5
     ee4:	54002221 	b.ne	1328 <kprintf.constprop.0+0xb9c>  // b.any
/home/nick2/optee-dependencies/Jetson_Linux_R35.4.1_aarch64/Linux_for_Tegra/sources/tegra/optee-src/nv-optee/optee/optee_os/lib/libutils/ext/snprintk.c:611
     ee8:	3617c8b5 	tbz	w21, #2, 7fc <kprintf.constprop.0+0x70>
/home/nick2/optee-dependencies/Jetson_Linux_R35.4.1_aarch64/Linux_for_Tegra/sources/tegra/optee-src/nv-optee/optee/optee_os/lib/libutils/ext/snprintk.c:612
     eec:	4b04014a 	sub	w10, w10, w4
/home/nick2/optee-dependencies/Jetson_Linux_R35.4.1_aarch64/Linux_for_Tegra/sources/tegra/optee-src/nv-optee/optee/optee_os/lib/libutils/ext/snprintk.c:614
     ef0:	52800400 	mov	w0, #0x20                  	// #32
/home/nick2/optee-dependencies/Jetson_Linux_R35.4.1_aarch64/Linux_for_Tegra/sources/tegra/optee-src/nv-optee/optee/optee_os/lib/libutils/ext/snprintk.c:613
     ef4:	7100015f 	cmp	w10, #0x0
     ef8:	54ffc82d 	b.le	7fc <kprintf.constprop.0+0x70>
/home/nick2/optee-dependencies/Jetson_Linux_R35.4.1_aarch64/Linux_for_Tegra/sources/tegra/optee-src/nv-optee/optee/optee_os/lib/libutils/ext/snprintk.c:614
     efc:	b40000b6 	cbz	x22, f10 <kprintf.constprop.0+0x784>
     f00:	f100011f 	cmp	x8, #0x0
     f04:	fa561302 	ccmp	x24, x22, #0x2, ne	// ne = any
     f08:	54000049 	b.ls	f10 <kprintf.constprop.0+0x784>  // b.plast
     f0c:	380016c0 	strb	w0, [x22], #1
     f10:	5100054a 	sub	w10, w10, #0x1
     f14:	17fffff8 	b	ef4 <kprintf.constprop.0+0x768>
/home/nick2/optee-dependencies/Jetson_Linux_R35.4.1_aarch64/Linux_for_Tegra/sources/tegra/optee-src/nv-optee/optee/optee_os/lib/libutils/ext/snprintk.c:427
     f18:	11002094 	add	w20, w4, #0x8
     f1c:	7100029f 	cmp	w20, #0x0
     f20:	5400008d 	b.le	f30 <kprintf.constprop.0+0x7a4>
     f24:	91003c73 	add	x19, x3, #0xf
     f28:	927df273 	and	x19, x19, #0xfffffffffffffff8
     f2c:	17ffffac 	b	ddc <kprintf.constprop.0+0x650>
     f30:	aa0303f3 	mov	x19, x3
     f34:	8b24c343 	add	x3, x26, w4, sxtw
     f38:	17ffffa9 	b	ddc <kprintf.constprop.0+0x650>
/home/nick2/optee-dependencies/Jetson_Linux_R35.4.1_aarch64/Linux_for_Tegra/sources/tegra/optee-src/nv-optee/optee/optee_os/lib/libutils/ext/snprintk.c:441
     f3c:	37f801e4 	tbnz	w4, #31, f78 <kprintf.constprop.0+0x7ec>
     f40:	91003c73 	add	x19, x3, #0xf
     f44:	2a0403f4 	mov	w20, w4
     f48:	927df273 	and	x19, x19, #0xfffffffffffffff8
/home/nick2/optee-dependencies/Jetson_Linux_R35.4.1_aarch64/Linux_for_Tegra/sources/tegra/optee-src/nv-optee/optee/optee_os/lib/libutils/ext/snprintk.c:443
     f4c:	f0000077 	adrp	x23, f000 <__text_end+0x26bc>
     f50:	910d4af7 	add	x23, x23, #0x352
/home/nick2/optee-dependencies/Jetson_Linux_R35.4.1_aarch64/Linux_for_Tegra/sources/tegra/optee-src/nv-optee/optee/optee_os/lib/libutils/ext/snprintk.c:441
     f54:	f9400062 	ldr	x2, [x3]
/home/nick2/optee-dependencies/Jetson_Linux_R35.4.1_aarch64/Linux_for_Tegra/sources/tegra/optee-src/nv-optee/optee/optee_os/lib/libutils/ext/snprintk.c:444
     f58:	321f02b5 	orr	w21, w21, #0x2
/home/nick2/optee-dependencies/Jetson_Linux_R35.4.1_aarch64/Linux_for_Tegra/sources/tegra/optee-src/nv-optee/optee/optee_os/lib/libutils/ext/snprintk.c:443
     f5c:	910046f7 	add	x23, x23, #0x11
/home/nick2/optee-dependencies/Jetson_Linux_R35.4.1_aarch64/Linux_for_Tegra/sources/tegra/optee-src/nv-optee/optee/optee_os/lib/libutils/ext/snprintk.c:445
     f60:	52800f1c 	mov	w28, #0x78                  	// #120
/home/nick2/optee-dependencies/Jetson_Linux_R35.4.1_aarch64/Linux_for_Tegra/sources/tegra/optee-src/nv-optee/optee/optee_os/lib/libutils/ext/snprintk.c:494
     f64:	310004bf 	cmn	w5, #0x1
     f68:	52800001 	mov	w1, #0x0                   	// #0
     f6c:	54ffdbc0 	b.eq	ae4 <kprintf.constprop.0+0x358>  // b.none
     f70:	52800040 	mov	w0, #0x2                   	// #2
     f74:	140000a8 	b	1214 <kprintf.constprop.0+0xa88>
/home/nick2/optee-dependencies/Jetson_Linux_R35.4.1_aarch64/Linux_for_Tegra/sources/tegra/optee-src/nv-optee/optee/optee_os/lib/libutils/ext/snprintk.c:441
     f78:	11002094 	add	w20, w4, #0x8
     f7c:	7100029f 	cmp	w20, #0x0
     f80:	5400008d 	b.le	f90 <kprintf.constprop.0+0x804>
     f84:	91003c73 	add	x19, x3, #0xf
     f88:	927df273 	and	x19, x19, #0xfffffffffffffff8
     f8c:	17fffff0 	b	f4c <kprintf.constprop.0+0x7c0>
     f90:	aa0303f3 	mov	x19, x3
     f94:	8b24c343 	add	x3, x26, w4, sxtw
     f98:	17ffffed 	b	f4c <kprintf.constprop.0+0x7c0>
/home/nick2/optee-dependencies/Jetson_Linux_R35.4.1_aarch64/Linux_for_Tegra/sources/tegra/optee-src/nv-optee/optee/optee_os/lib/libutils/ext/snprintk.c:448
     f9c:	37f80364 	tbnz	w4, #31, 1008 <kprintf.constprop.0+0x87c>
     fa0:	91003c73 	add	x19, x3, #0xf
     fa4:	2a0403f4 	mov	w20, w4
     fa8:	927df273 	and	x19, x19, #0xfffffffffffffff8
     fac:	f9400063 	ldr	x3, [x3]
     fb0:	b5000063 	cbnz	x3, fbc <kprintf.constprop.0+0x830>
/home/nick2/optee-dependencies/Jetson_Linux_R35.4.1_aarch64/Linux_for_Tegra/sources/tegra/optee-src/nv-optee/optee/optee_os/lib/libutils/ext/snprintk.c:450
     fb4:	f0000063 	adrp	x3, f000 <__text_end+0x26bc>
     fb8:	9123d463 	add	x3, x3, #0x8f5
/home/nick2/optee-dependencies/Jetson_Linux_R35.4.1_aarch64/Linux_for_Tegra/sources/tegra/optee-src/nv-optee/optee/optee_os/lib/libutils/ext/snprintk.c:451
     fbc:	310004bf 	cmn	w5, #0x1
     fc0:	54000360 	b.eq	102c <kprintf.constprop.0+0x8a0>  // b.none
/home/nick2/optee-dependencies/Jetson_Linux_R35.4.1_aarch64/Linux_for_Tegra/sources/tegra/optee-src/nv-optee/optee/optee_os/lib/libutils/ext/snprintk.c:457
     fc4:	93407ca2 	sxtw	x2, w5
     fc8:	aa0303e0 	mov	x0, x3
     fcc:	52800001 	mov	w1, #0x0                   	// #0
     fd0:	f9004fe3 	str	x3, [sp, #152]
     fd4:	2914abe5 	stp	w5, w10, [sp, #164]
     fd8:	a90b33e8 	stp	x8, x12, [sp, #176]
     fdc:	940000f7 	bl	13b8 <memchr>
/home/nick2/optee-dependencies/Jetson_Linux_R35.4.1_aarch64/Linux_for_Tegra/sources/tegra/optee-src/nv-optee/optee/optee_os/lib/libutils/ext/snprintk.c:459
     fe0:	2954abe5 	ldp	w5, w10, [sp, #164]
     fe4:	f9404fe3 	ldr	x3, [sp, #152]
     fe8:	a94b33e8 	ldp	x8, x12, [sp, #176]
     fec:	b4000080 	cbz	x0, ffc <kprintf.constprop.0+0x870>
/home/nick2/optee-dependencies/Jetson_Linux_R35.4.1_aarch64/Linux_for_Tegra/sources/tegra/optee-src/nv-optee/optee/optee_os/lib/libutils/ext/snprintk.c:460
     ff0:	cb030000 	sub	x0, x0, x3
     ff4:	6b0000bf 	cmp	w5, w0
     ff8:	1a80d0a5 	csel	w5, w5, w0, le
/home/nick2/optee-dependencies/Jetson_Linux_R35.4.1_aarch64/Linux_for_Tegra/sources/tegra/optee-src/nv-optee/optee/optee_os/lib/libutils/ext/snprintk.c:291
     ffc:	52800006 	mov	w6, #0x0                   	// #0
/home/nick2/optee-dependencies/Jetson_Linux_R35.4.1_aarch64/Linux_for_Tegra/sources/tegra/optee-src/nv-optee/optee/optee_os/lib/libutils/ext/snprintk.c:467
    1000:	52800001 	mov	w1, #0x0                   	// #0
    1004:	17ffff97 	b	e60 <kprintf.constprop.0+0x6d4>
/home/nick2/optee-dependencies/Jetson_Linux_R35.4.1_aarch64/Linux_for_Tegra/sources/tegra/optee-src/nv-optee/optee/optee_os/lib/libutils/ext/snprintk.c:448
    1008:	11002094 	add	w20, w4, #0x8
    100c:	7100029f 	cmp	w20, #0x0
    1010:	5400008d 	b.le	1020 <kprintf.constprop.0+0x894>
    1014:	91003c73 	add	x19, x3, #0xf
    1018:	927df273 	and	x19, x19, #0xfffffffffffffff8
    101c:	17ffffe4 	b	fac <kprintf.constprop.0+0x820>
    1020:	aa0303f3 	mov	x19, x3
    1024:	8b24c343 	add	x3, x26, w4, sxtw
    1028:	17ffffe1 	b	fac <kprintf.constprop.0+0x820>
/home/nick2/optee-dependencies/Jetson_Linux_R35.4.1_aarch64/Linux_for_Tegra/sources/tegra/optee-src/nv-optee/optee/optee_os/lib/libutils/ext/snprintk.c:466
    102c:	aa0303e0 	mov	x0, x3
    1030:	f9004fe3 	str	x3, [sp, #152]
    1034:	b900a7ea 	str	w10, [sp, #164]
    1038:	a90ab3e8 	stp	x8, x12, [sp, #168]
    103c:	940000ea 	bl	13e4 <strlen>
    1040:	b940a7ea 	ldr	w10, [sp, #164]
    1044:	2a0003e5 	mov	w5, w0
/home/nick2/optee-dependencies/Jetson_Linux_R35.4.1_aarch64/Linux_for_Tegra/sources/tegra/optee-src/nv-optee/optee/optee_os/lib/libutils/ext/snprintk.c:291
    1048:	52800006 	mov	w6, #0x0                   	// #0
/home/nick2/optee-dependencies/Jetson_Linux_R35.4.1_aarch64/Linux_for_Tegra/sources/tegra/optee-src/nv-optee/optee/optee_os/lib/libutils/ext/snprintk.c:467
    104c:	52800001 	mov	w1, #0x0                   	// #0
    1050:	f9404fe3 	ldr	x3, [sp, #152]
    1054:	a94ab3e8 	ldp	x8, x12, [sp, #168]
    1058:	17ffff82 	b	e60 <kprintf.constprop.0+0x6d4>
/home/nick2/optee-dependencies/Jetson_Linux_R35.4.1_aarch64/Linux_for_Tegra/sources/tegra/optee-src/nv-optee/optee/optee_os/lib/libutils/ext/snprintk.c:470
    105c:	321c02b5 	orr	w21, w21, #0x10
/home/nick2/optee-dependencies/Jetson_Linux_R35.4.1_aarch64/Linux_for_Tegra/sources/tegra/optee-src/nv-optee/optee/optee_os/lib/libutils/ext/snprintk.c:473
    1060:	36380235 	tbz	w21, #7, 10a4 <kprintf.constprop.0+0x918>
    1064:	37f80364 	tbnz	w4, #31, 10d0 <kprintf.constprop.0+0x944>
    1068:	91003c73 	add	x19, x3, #0xf
    106c:	2a0403f4 	mov	w20, w4
    1070:	927df273 	and	x19, x19, #0xfffffffffffffff8
    1074:	f9400062 	ldr	x2, [x3]
/home/nick2/optee-dependencies/Jetson_Linux_R35.4.1_aarch64/Linux_for_Tegra/sources/tegra/optee-src/nv-optee/optee/optee_os/lib/libutils/ext/snprintk.c:488
    1078:	52800001 	mov	w1, #0x0                   	// #0
/home/nick2/optee-dependencies/Jetson_Linux_R35.4.1_aarch64/Linux_for_Tegra/sources/tegra/optee-src/nv-optee/optee/optee_os/lib/libutils/ext/snprintk.c:494
    107c:	310004bf 	cmn	w5, #0x1
    1080:	54000d81 	b.ne	1230 <kprintf.constprop.0+0xaa4>  // b.any
/home/nick2/optee-dependencies/Jetson_Linux_R35.4.1_aarch64/Linux_for_Tegra/sources/tegra/optee-src/nv-optee/optee/optee_os/lib/libutils/ext/snprintk.c:502
    1084:	91009580 	add	x0, x12, #0x25
/home/nick2/optee-dependencies/Jetson_Linux_R35.4.1_aarch64/Linux_for_Tegra/sources/tegra/optee-src/nv-optee/optee/optee_os/lib/libutils/ext/snprintk.c:523
    1088:	d2800144 	mov	x4, #0xa                   	// #10
/home/nick2/optee-dependencies/Jetson_Linux_R35.4.1_aarch64/Linux_for_Tegra/sources/tegra/optee-src/nv-optee/optee/optee_os/lib/libutils/ext/snprintk.c:522
    108c:	d1000403 	sub	x3, x0, #0x1
    1090:	f100245f 	cmp	x2, #0x9
    1094:	54000d28 	b.hi	1238 <kprintf.constprop.0+0xaac>  // b.pmore
/home/nick2/optee-dependencies/Jetson_Linux_R35.4.1_aarch64/Linux_for_Tegra/sources/tegra/optee-src/nv-optee/optee/optee_os/lib/libutils/ext/snprintk.c:526
    1098:	1100c042 	add	w2, w2, #0x30
    109c:	381ff002 	sturb	w2, [x0, #-1]
/home/nick2/optee-dependencies/Jetson_Linux_R35.4.1_aarch64/Linux_for_Tegra/sources/tegra/optee-src/nv-optee/optee/optee_os/lib/libutils/ext/snprintk.c:527
    10a0:	17ffff12 	b	ce8 <kprintf.constprop.0+0x55c>
/home/nick2/optee-dependencies/Jetson_Linux_R35.4.1_aarch64/Linux_for_Tegra/sources/tegra/optee-src/nv-optee/optee/optee_os/lib/libutils/ext/snprintk.c:473
    10a4:	3747fe15 	tbnz	w21, #8, 1064 <kprintf.constprop.0+0x8d8>
    10a8:	374ffdf5 	tbnz	w21, #9, 1064 <kprintf.constprop.0+0x8d8>
    10ac:	372ffdd5 	tbnz	w21, #5, 1064 <kprintf.constprop.0+0x8d8>
    10b0:	3727fdb5 	tbnz	w21, #4, 1064 <kprintf.constprop.0+0x8d8>
    10b4:	36300335 	tbz	w21, #6, 1118 <kprintf.constprop.0+0x98c>
    10b8:	37f801e4 	tbnz	w4, #31, 10f4 <kprintf.constprop.0+0x968>
    10bc:	91002c73 	add	x19, x3, #0xb
    10c0:	2a0403f4 	mov	w20, w4
    10c4:	927df273 	and	x19, x19, #0xfffffffffffffff8
    10c8:	79400062 	ldrh	w2, [x3]
    10cc:	17ffffeb 	b	1078 <kprintf.constprop.0+0x8ec>
    10d0:	11002094 	add	w20, w4, #0x8
    10d4:	7100029f 	cmp	w20, #0x0
    10d8:	5400008d 	b.le	10e8 <kprintf.constprop.0+0x95c>
    10dc:	91003c73 	add	x19, x3, #0xf
    10e0:	927df273 	and	x19, x19, #0xfffffffffffffff8
    10e4:	17ffffe4 	b	1074 <kprintf.constprop.0+0x8e8>
    10e8:	aa0303f3 	mov	x19, x3
    10ec:	8b24c343 	add	x3, x26, w4, sxtw
    10f0:	17ffffe1 	b	1074 <kprintf.constprop.0+0x8e8>
    10f4:	11002094 	add	w20, w4, #0x8
    10f8:	7100029f 	cmp	w20, #0x0
    10fc:	5400008d 	b.le	110c <kprintf.constprop.0+0x980>
    1100:	91002c73 	add	x19, x3, #0xb
    1104:	927df273 	and	x19, x19, #0xfffffffffffffff8
    1108:	17fffff0 	b	10c8 <kprintf.constprop.0+0x93c>
    110c:	aa0303f3 	mov	x19, x3
    1110:	8b24c343 	add	x3, x26, w4, sxtw
    1114:	17ffffed 	b	10c8 <kprintf.constprop.0+0x93c>
    1118:	37f800c4 	tbnz	w4, #31, 1130 <kprintf.constprop.0+0x9a4>
    111c:	91002c73 	add	x19, x3, #0xb
    1120:	2a0403f4 	mov	w20, w4
    1124:	927df273 	and	x19, x19, #0xfffffffffffffff8
    1128:	b9400062 	ldr	w2, [x3]
    112c:	17ffffd3 	b	1078 <kprintf.constprop.0+0x8ec>
    1130:	11002094 	add	w20, w4, #0x8
    1134:	7100029f 	cmp	w20, #0x0
    1138:	5400008d 	b.le	1148 <kprintf.constprop.0+0x9bc>
    113c:	91002c73 	add	x19, x3, #0xb
    1140:	927df273 	and	x19, x19, #0xfffffffffffffff8
    1144:	17fffff9 	b	1128 <kprintf.constprop.0+0x99c>
    1148:	aa0303f3 	mov	x19, x3
    114c:	8b24c343 	add	x3, x26, w4, sxtw
    1150:	17fffff6 	b	1128 <kprintf.constprop.0+0x99c>
/home/nick2/optee-dependencies/Jetson_Linux_R35.4.1_aarch64/Linux_for_Tegra/sources/tegra/optee-src/nv-optee/optee/optee_os/lib/libutils/ext/snprintk.c:477
    1154:	d0000077 	adrp	x23, f000 <__text_end+0x26bc>
    1158:	910d4af7 	add	x23, x23, #0x352
    115c:	17fffdd9 	b	8c0 <kprintf.constprop.0+0x134>
/home/nick2/optee-dependencies/Jetson_Linux_R35.4.1_aarch64/Linux_for_Tegra/sources/tegra/optee-src/nv-optee/optee/optee_os/lib/libutils/ext/snprintk.c:481
    1160:	3747bb35 	tbnz	w21, #8, 8c4 <kprintf.constprop.0+0x138>
    1164:	374fbb15 	tbnz	w21, #9, 8c4 <kprintf.constprop.0+0x138>
    1168:	372fbaf5 	tbnz	w21, #5, 8c4 <kprintf.constprop.0+0x138>
    116c:	3727bad5 	tbnz	w21, #4, 8c4 <kprintf.constprop.0+0x138>
    1170:	36300335 	tbz	w21, #6, 11d4 <kprintf.constprop.0+0xa48>
    1174:	37f801e4 	tbnz	w4, #31, 11b0 <kprintf.constprop.0+0xa24>
    1178:	91002c73 	add	x19, x3, #0xb
    117c:	2a0403f4 	mov	w20, w4
    1180:	927df273 	and	x19, x19, #0xfffffffffffffff8
    1184:	79400062 	ldrh	w2, [x3]
    1188:	17fffdd4 	b	8d8 <kprintf.constprop.0+0x14c>
    118c:	11002094 	add	w20, w4, #0x8
    1190:	7100029f 	cmp	w20, #0x0
    1194:	5400008d 	b.le	11a4 <kprintf.constprop.0+0xa18>
    1198:	91003c73 	add	x19, x3, #0xf
    119c:	927df273 	and	x19, x19, #0xfffffffffffffff8
    11a0:	17fffdcd 	b	8d4 <kprintf.constprop.0+0x148>
    11a4:	aa0303f3 	mov	x19, x3
    11a8:	8b24c343 	add	x3, x26, w4, sxtw
    11ac:	17fffdca 	b	8d4 <kprintf.constprop.0+0x148>
    11b0:	11002094 	add	w20, w4, #0x8
    11b4:	7100029f 	cmp	w20, #0x0
    11b8:	5400008d 	b.le	11c8 <kprintf.constprop.0+0xa3c>
    11bc:	91002c73 	add	x19, x3, #0xb
    11c0:	927df273 	and	x19, x19, #0xfffffffffffffff8
    11c4:	17fffff0 	b	1184 <kprintf.constprop.0+0x9f8>
    11c8:	aa0303f3 	mov	x19, x3
    11cc:	8b24c343 	add	x3, x26, w4, sxtw
    11d0:	17ffffed 	b	1184 <kprintf.constprop.0+0x9f8>
    11d4:	37f800c4 	tbnz	w4, #31, 11ec <kprintf.constprop.0+0xa60>
    11d8:	91002c73 	add	x19, x3, #0xb
    11dc:	2a0403f4 	mov	w20, w4
    11e0:	927df273 	and	x19, x19, #0xfffffffffffffff8
    11e4:	b9400062 	ldr	w2, [x3]
    11e8:	17fffdbc 	b	8d8 <kprintf.constprop.0+0x14c>
    11ec:	11002094 	add	w20, w4, #0x8
    11f0:	7100029f 	cmp	w20, #0x0
    11f4:	5400008d 	b.le	1204 <kprintf.constprop.0+0xa78>
    11f8:	91002c73 	add	x19, x3, #0xb
    11fc:	927df273 	and	x19, x19, #0xfffffffffffffff8
    1200:	17fffff9 	b	11e4 <kprintf.constprop.0+0xa58>
    1204:	aa0303f3 	mov	x19, x3
    1208:	8b24c343 	add	x3, x26, w4, sxtw
    120c:	17fffff6 	b	11e4 <kprintf.constprop.0+0xa58>
/home/nick2/optee-dependencies/Jetson_Linux_R35.4.1_aarch64/Linux_for_Tegra/sources/tegra/optee-src/nv-optee/optee/optee_os/lib/libutils/ext/snprintk.c:494
    1210:	52800000 	mov	w0, #0x0                   	// #0
/home/nick2/optee-dependencies/Jetson_Linux_R35.4.1_aarch64/Linux_for_Tegra/sources/tegra/optee-src/nv-optee/optee/optee_os/lib/libutils/ext/snprintk.c:503
    1214:	f100005f 	cmp	x2, #0x0
/home/nick2/optee-dependencies/Jetson_Linux_R35.4.1_aarch64/Linux_for_Tegra/sources/tegra/optee-src/nv-optee/optee/optee_os/lib/libutils/ext/snprintk.c:495
    1218:	12157ab5 	and	w21, w21, #0xfffffbff
/home/nick2/optee-dependencies/Jetson_Linux_R35.4.1_aarch64/Linux_for_Tegra/sources/tegra/optee-src/nv-optee/optee/optee_os/lib/libutils/ext/snprintk.c:503
    121c:	7a4008a0 	ccmp	w5, #0x0, #0x0, eq	// eq = none
    1220:	54ffc5a1 	b.ne	ad4 <kprintf.constprop.0+0x348>  // b.any
/home/nick2/optee-dependencies/Jetson_Linux_R35.4.1_aarch64/Linux_for_Tegra/sources/tegra/optee-src/nv-optee/optee/optee_os/lib/libutils/ext/snprintk.c:502
    1224:	91009583 	add	x3, x12, #0x25
/home/nick2/optee-dependencies/Jetson_Linux_R35.4.1_aarch64/Linux_for_Tegra/sources/tegra/optee-src/nv-optee/optee/optee_os/lib/libutils/ext/snprintk.c:542
    1228:	52800005 	mov	w5, #0x0                   	// #0
    122c:	17fffeaf 	b	ce8 <kprintf.constprop.0+0x55c>
/home/nick2/optee-dependencies/Jetson_Linux_R35.4.1_aarch64/Linux_for_Tegra/sources/tegra/optee-src/nv-optee/optee/optee_os/lib/libutils/ext/snprintk.c:494
    1230:	52800020 	mov	w0, #0x1                   	// #1
    1234:	17fffff8 	b	1214 <kprintf.constprop.0+0xa88>
/home/nick2/optee-dependencies/Jetson_Linux_R35.4.1_aarch64/Linux_for_Tegra/sources/tegra/optee-src/nv-optee/optee/optee_os/lib/libutils/ext/snprintk.c:523
    1238:	9ac40846 	udiv	x6, x2, x4
    123c:	9b0488c2 	msub	x2, x6, x4, x2
    1240:	1100c042 	add	w2, w2, #0x30
    1244:	381ff002 	sturb	w2, [x0, #-1]
/home/nick2/optee-dependencies/Jetson_Linux_R35.4.1_aarch64/Linux_for_Tegra/sources/tegra/optee-src/nv-optee/optee/optee_os/lib/libutils/ext/snprintk.c:524
    1248:	aa0603e2 	mov	x2, x6
    124c:	aa0303e0 	mov	x0, x3
    1250:	17ffff8f 	b	108c <kprintf.constprop.0+0x900>
/home/nick2/optee-dependencies/Jetson_Linux_R35.4.1_aarch64/Linux_for_Tegra/sources/tegra/optee-src/nv-optee/optee/optee_os/lib/libutils/ext/snprintk.c:547
    1254:	35ffb55c 	cbnz	w28, 8fc <kprintf.constprop.0+0x170>
/home/nick2/optee-dependencies/Jetson_Linux_R35.4.1_aarch64/Linux_for_Tegra/sources/tegra/optee-src/nv-optee/optee/optee_os/lib/libutils/ext/snprintk.c:619
    1258:	b4000048 	cbz	x8, 1260 <kprintf.constprop.0+0xad4>
/home/nick2/optee-dependencies/Jetson_Linux_R35.4.1_aarch64/Linux_for_Tegra/sources/tegra/optee-src/nv-optee/optee/optee_os/lib/libutils/ext/snprintk.c:620
    125c:	f9000116 	str	x22, [x8]
/home/nick2/optee-dependencies/Jetson_Linux_R35.4.1_aarch64/Linux_for_Tegra/sources/tegra/optee-src/nv-optee/optee/optee_os/lib/libutils/ext/snprintk.c:622
    1260:	90000080 	adrp	x0, 11000 <_DYNAMIC>
    1264:	f9409800 	ldr	x0, [x0, #304]
    1268:	f94077e1 	ldr	x1, [sp, #232]
    126c:	f9400002 	ldr	x2, [x0]
    1270:	eb020021 	subs	x1, x1, x2
    1274:	d2800002 	mov	x2, #0x0                   	// #0
    1278:	54000680 	b.eq	1348 <kprintf.constprop.0+0xbbc>  // b.none
    127c:	97fffcbf 	bl	578 <__stack_chk_fail>
/home/nick2/optee-dependencies/Jetson_Linux_R35.4.1_aarch64/Linux_for_Tegra/sources/tegra/optee-src/nv-optee/optee/optee_os/lib/libutils/ext/snprintk.c:574
    1280:	360fdf95 	tbz	w21, #1, e70 <kprintf.constprop.0+0x6e4>
/home/nick2/optee-dependencies/Jetson_Linux_R35.4.1_aarch64/Linux_for_Tegra/sources/tegra/optee-src/nv-optee/optee/optee_os/lib/libutils/ext/snprintk.c:575
    1284:	11000884 	add	w4, w4, #0x2
    1288:	17fffefa 	b	e70 <kprintf.constprop.0+0x6e4>
/home/nick2/optee-dependencies/Jetson_Linux_R35.4.1_aarch64/Linux_for_Tegra/sources/tegra/optee-src/nv-optee/optee/optee_os/lib/libutils/ext/snprintk.c:584
    128c:	b40000b6 	cbz	x22, 12a0 <kprintf.constprop.0+0xb14>
    1290:	f100011f 	cmp	x8, #0x0
    1294:	fa561302 	ccmp	x24, x22, #0x2, ne	// ne = any
    1298:	54000049 	b.ls	12a0 <kprintf.constprop.0+0xb14>  // b.plast
    129c:	380016c2 	strb	w2, [x22], #1
    12a0:	510004e7 	sub	w7, w7, #0x1
    12a4:	17fffefb 	b	e90 <kprintf.constprop.0+0x704>
/home/nick2/optee-dependencies/Jetson_Linux_R35.4.1_aarch64/Linux_for_Tegra/sources/tegra/optee-src/nv-optee/optee/optee_os/lib/libutils/ext/snprintk.c:590
    12a8:	360fe055 	tbz	w21, #1, eb0 <kprintf.constprop.0+0x724>
/home/nick2/optee-dependencies/Jetson_Linux_R35.4.1_aarch64/Linux_for_Tegra/sources/tegra/optee-src/nv-optee/optee/optee_os/lib/libutils/ext/snprintk.c:591
    12ac:	b4ffe036 	cbz	x22, eb0 <kprintf.constprop.0+0x724>
    12b0:	f100011f 	cmp	x8, #0x0
    12b4:	1a9f17e2 	cset	w2, eq	// eq = none
    12b8:	7100005f 	cmp	w2, #0x0
    12bc:	fa560302 	ccmp	x24, x22, #0x2, eq	// eq = none
    12c0:	54ffdf89 	b.ls	eb0 <kprintf.constprop.0+0x724>  // b.plast
    12c4:	aa1603e1 	mov	x1, x22
    12c8:	52800607 	mov	w7, #0x30                  	// #48
/home/nick2/optee-dependencies/Jetson_Linux_R35.4.1_aarch64/Linux_for_Tegra/sources/tegra/optee-src/nv-optee/optee/optee_os/lib/libutils/ext/snprintk.c:592
    12cc:	7100005f 	cmp	w2, #0x0
/home/nick2/optee-dependencies/Jetson_Linux_R35.4.1_aarch64/Linux_for_Tegra/sources/tegra/optee-src/nv-optee/optee/optee_os/lib/libutils/ext/snprintk.c:591
    12d0:	38001427 	strb	w7, [x1], #1
/home/nick2/optee-dependencies/Jetson_Linux_R35.4.1_aarch64/Linux_for_Tegra/sources/tegra/optee-src/nv-optee/optee/optee_os/lib/libutils/ext/snprintk.c:592
    12d4:	fa410302 	ccmp	x24, x1, #0x2, eq	// eq = none
    12d8:	54000089 	b.ls	12e8 <kprintf.constprop.0+0xb5c>  // b.plast
    12dc:	91000ad6 	add	x22, x22, #0x2
    12e0:	381ff2dc 	sturb	w28, [x22, #-1]
    12e4:	17fffef3 	b	eb0 <kprintf.constprop.0+0x724>
    12e8:	aa0103f6 	mov	x22, x1
    12ec:	17fffef1 	b	eb0 <kprintf.constprop.0+0x724>
/home/nick2/optee-dependencies/Jetson_Linux_R35.4.1_aarch64/Linux_for_Tegra/sources/tegra/optee-src/nv-optee/optee/optee_os/lib/libutils/ext/snprintk.c:599
    12f0:	b40000b6 	cbz	x22, 1304 <kprintf.constprop.0+0xb78>
    12f4:	f100011f 	cmp	x8, #0x0
    12f8:	fa561302 	ccmp	x24, x22, #0x2, ne	// ne = any
    12fc:	54000049 	b.ls	1304 <kprintf.constprop.0+0xb78>  // b.plast
    1300:	380016c1 	strb	w1, [x22], #1
    1304:	51000400 	sub	w0, w0, #0x1
    1308:	17fffeee 	b	ec0 <kprintf.constprop.0+0x734>
/home/nick2/optee-dependencies/Jetson_Linux_R35.4.1_aarch64/Linux_for_Tegra/sources/tegra/optee-src/nv-optee/optee/optee_os/lib/libutils/ext/snprintk.c:605
    130c:	b40000b6 	cbz	x22, 1320 <kprintf.constprop.0+0xb94>
    1310:	f100011f 	cmp	x8, #0x0
    1314:	fa561302 	ccmp	x24, x22, #0x2, ne	// ne = any
    1318:	54000049 	b.ls	1320 <kprintf.constprop.0+0xb94>  // b.plast
    131c:	380016c0 	strb	w0, [x22], #1
    1320:	510004c6 	sub	w6, w6, #0x1
    1324:	17fffeeb 	b	ed0 <kprintf.constprop.0+0x744>
/home/nick2/optee-dependencies/Jetson_Linux_R35.4.1_aarch64/Linux_for_Tegra/sources/tegra/optee-src/nv-optee/optee/optee_os/lib/libutils/ext/snprintk.c:609
    1328:	b40000d6 	cbz	x22, 1340 <kprintf.constprop.0+0xbb4>
    132c:	f100011f 	cmp	x8, #0x0
    1330:	fa561302 	ccmp	x24, x22, #0x2, ne	// ne = any
    1334:	54000069 	b.ls	1340 <kprintf.constprop.0+0xbb4>  // b.plast
    1338:	38616860 	ldrb	w0, [x3, x1]
    133c:	380016c0 	strb	w0, [x22], #1
/home/nick2/optee-dependencies/Jetson_Linux_R35.4.1_aarch64/Linux_for_Tegra/sources/tegra/optee-src/nv-optee/optee/optee_os/lib/libutils/ext/snprintk.c:608
    1340:	91000421 	add	x1, x1, #0x1
    1344:	17fffee7 	b	ee0 <kprintf.constprop.0+0x754>
/home/nick2/optee-dependencies/Jetson_Linux_R35.4.1_aarch64/Linux_for_Tegra/sources/tegra/optee-src/nv-optee/optee/optee_os/lib/libutils/ext/snprintk.c:622
    1348:	2a1903e0 	mov	w0, w25
    134c:	a9437bfd 	ldp	x29, x30, [sp, #48]
    1350:	a94453f3 	ldp	x19, x20, [sp, #64]
    1354:	a9455bf5 	ldp	x21, x22, [sp, #80]
    1358:	a94663f7 	ldp	x23, x24, [sp, #96]
    135c:	a9476bf9 	ldp	x25, x26, [sp, #112]
    1360:	a94873fb 	ldp	x27, x28, [sp, #128]
    1364:	9103c3ff 	add	sp, sp, #0xf0
    1368:	d65f03c0 	ret

000000000000136c <__vsprintf>:
__vsprintf():
/home/nick2/optee-dependencies/Jetson_Linux_R35.4.1_aarch64/Linux_for_Tegra/sources/tegra/optee-src/nv-optee/optee/optee_os/lib/libutils/ext/snprintk.c:155
    136c:	a9bc7bfd 	stp	x29, x30, [sp, #-64]!
/home/nick2/optee-dependencies/Jetson_Linux_R35.4.1_aarch64/Linux_for_Tegra/sources/tegra/optee-src/nv-optee/optee/optee_os/lib/libutils/ext/snprintk.c:156
    1370:	910083e3 	add	x3, sp, #0x20
/home/nick2/optee-dependencies/Jetson_Linux_R35.4.1_aarch64/Linux_for_Tegra/sources/tegra/optee-src/nv-optee/optee/optee_os/lib/libutils/ext/snprintk.c:155
    1374:	910003fd 	mov	x29, sp
    1378:	a90153f3 	stp	x19, x20, [sp, #16]
    137c:	aa0003f4 	mov	x20, x0
    1380:	aa0103f3 	mov	x19, x1
/home/nick2/optee-dependencies/Jetson_Linux_R35.4.1_aarch64/Linux_for_Tegra/sources/tegra/optee-src/nv-optee/optee/optee_os/lib/libutils/ext/snprintk.c:156
    1384:	aa0303e0 	mov	x0, x3
/home/nick2/optee-dependencies/Jetson_Linux_R35.4.1_aarch64/Linux_for_Tegra/sources/tegra/optee-src/nv-optee/optee/optee_os/lib/libutils/ext/snprintk.c:155
    1388:	aa0203e1 	mov	x1, x2
/home/nick2/optee-dependencies/Jetson_Linux_R35.4.1_aarch64/Linux_for_Tegra/sources/tegra/optee-src/nv-optee/optee/optee_os/lib/libutils/ext/snprintk.c:156
    138c:	d2800402 	mov	x2, #0x20                  	// #32
    1390:	97fffb24 	bl	20 <memcpy>
    1394:	aa1403e2 	mov	x2, x20
    1398:	aa0003e3 	mov	x3, x0
    139c:	52800004 	mov	w4, #0x0                   	// #0
    13a0:	aa1303e0 	mov	x0, x19
    13a4:	d2800001 	mov	x1, #0x0                   	// #0
    13a8:	97fffcf9 	bl	78c <kprintf.constprop.0>
/home/nick2/optee-dependencies/Jetson_Linux_R35.4.1_aarch64/Linux_for_Tegra/sources/tegra/optee-src/nv-optee/optee/optee_os/lib/libutils/ext/snprintk.c:157
    13ac:	a94153f3 	ldp	x19, x20, [sp, #16]
    13b0:	a8c47bfd 	ldp	x29, x30, [sp], #64
    13b4:	d65f03c0 	ret

00000000000013b8 <memchr>:
memchr():
/home/nick2/optee-dependencies/Jetson_Linux_R35.4.1_aarch64/Linux_for_Tegra/sources/tegra/optee-src/nv-optee/optee/optee_os/lib/libutils/isoc/newlib/memchr.c:109
    13b8:	12001c21 	and	w1, w1, #0xff
/home/nick2/optee-dependencies/Jetson_Linux_R35.4.1_aarch64/Linux_for_Tegra/sources/tegra/optee-src/nv-optee/optee/optee_os/lib/libutils/isoc/newlib/memchr.c:153
    13bc:	8b020002 	add	x2, x0, x2
    13c0:	eb02001f 	cmp	x0, x2
    13c4:	54000061 	b.ne	13d0 <memchr+0x18>  // b.any
/home/nick2/optee-dependencies/Jetson_Linux_R35.4.1_aarch64/Linux_for_Tegra/sources/tegra/optee-src/nv-optee/optee/optee_os/lib/libutils/isoc/newlib/memchr.c:159
    13c8:	d2800000 	mov	x0, #0x0                   	// #0
/home/nick2/optee-dependencies/Jetson_Linux_R35.4.1_aarch64/Linux_for_Tegra/sources/tegra/optee-src/nv-optee/optee/optee_os/lib/libutils/isoc/newlib/memchr.c:160
    13cc:	d65f03c0 	ret
/home/nick2/optee-dependencies/Jetson_Linux_R35.4.1_aarch64/Linux_for_Tegra/sources/tegra/optee-src/nv-optee/optee/optee_os/lib/libutils/isoc/newlib/memchr.c:154
    13d0:	39400003 	ldrb	w3, [x0]
    13d4:	6b01007f 	cmp	w3, w1
    13d8:	54ffffa0 	b.eq	13cc <memchr+0x14>  // b.none
/home/nick2/optee-dependencies/Jetson_Linux_R35.4.1_aarch64/Linux_for_Tegra/sources/tegra/optee-src/nv-optee/optee/optee_os/lib/libutils/isoc/newlib/memchr.c:156
    13dc:	91000400 	add	x0, x0, #0x1
    13e0:	17fffff8 	b	13c0 <memchr+0x8>

00000000000013e4 <strlen>:
strlen():
/home/nick2/optee-dependencies/Jetson_Linux_R35.4.1_aarch64/Linux_for_Tegra/sources/tegra/optee-src/nv-optee/optee/optee_os/lib/libutils/isoc/newlib/strlen.c:117
    13e4:	aa0003e1 	mov	x1, x0
    13e8:	39400022 	ldrb	w2, [x1]
    13ec:	35000062 	cbnz	w2, 13f8 <strlen+0x14>
/home/nick2/optee-dependencies/Jetson_Linux_R35.4.1_aarch64/Linux_for_Tegra/sources/tegra/optee-src/nv-optee/optee/optee_os/lib/libutils/isoc/newlib/strlen.c:120
    13f0:	cb000020 	sub	x0, x1, x0
    13f4:	d65f03c0 	ret
/home/nick2/optee-dependencies/Jetson_Linux_R35.4.1_aarch64/Linux_for_Tegra/sources/tegra/optee-src/nv-optee/optee/optee_os/lib/libutils/isoc/newlib/strlen.c:118
    13f8:	91000421 	add	x1, x1, #0x1
    13fc:	17fffffb 	b	13e8 <strlen+0x4>

0000000000001400 <abort>:
abort():
/home/nick2/optee-dependencies/Jetson_Linux_R35.4.1_aarch64/Linux_for_Tegra/sources/tegra/optee-src/nv-optee/optee/optee_os/lib/libutee/abort.c:12
    1400:	a9bf7bfd 	stp	x29, x30, [sp, #-16]!
/home/nick2/optee-dependencies/Jetson_Linux_R35.4.1_aarch64/Linux_for_Tegra/sources/tegra/optee-src/nv-optee/optee/optee_os/lib/libutee/abort.c:13
    1404:	d0000060 	adrp	x0, f000 <__text_end+0x26bc>
    1408:	9124b400 	add	x0, x0, #0x92d
/home/nick2/optee-dependencies/Jetson_Linux_R35.4.1_aarch64/Linux_for_Tegra/sources/tegra/optee-src/nv-optee/optee/optee_os/lib/libutee/abort.c:12
    140c:	910003fd 	mov	x29, sp
/home/nick2/optee-dependencies/Jetson_Linux_R35.4.1_aarch64/Linux_for_Tegra/sources/tegra/optee-src/nv-optee/optee/optee_os/lib/libutee/abort.c:13
    1410:	94000050 	bl	1550 <puts>
/home/nick2/optee-dependencies/Jetson_Linux_R35.4.1_aarch64/Linux_for_Tegra/sources/tegra/optee-src/nv-optee/optee/optee_os/lib/libutee/abort.c:14
    1414:	d2800000 	mov	x0, #0x0                   	// #0
    1418:	940002da 	bl	1f80 <_utee_panic>
/home/nick2/optee-dependencies/Jetson_Linux_R35.4.1_aarch64/Linux_for_Tegra/sources/tegra/optee-src/nv-optee/optee/optee_os/lib/libutee/abort.c:16 (discriminator 1)
    141c:	14000000 	b	141c <abort+0x1c>

0000000000001420 <trace_ext_puts>:
trace_ext_puts():
/home/nick2/optee-dependencies/Jetson_Linux_R35.4.1_aarch64/Linux_for_Tegra/sources/tegra/optee-src/nv-optee/optee/optee_os/lib/libutee/trace_ext.c:22
    1420:	a9be7bfd 	stp	x29, x30, [sp, #-32]!
    1424:	910003fd 	mov	x29, sp
    1428:	f9000bf3 	str	x19, [sp, #16]
    142c:	aa0003f3 	mov	x19, x0
/home/nick2/optee-dependencies/Jetson_Linux_R35.4.1_aarch64/Linux_for_Tegra/sources/tegra/optee-src/nv-optee/optee/optee_os/lib/libutee/trace_ext.c:26
    1430:	97ffffed 	bl	13e4 <strlen>
    1434:	aa0003e1 	mov	x1, x0
    1438:	aa1303e0 	mov	x0, x19
/home/nick2/optee-dependencies/Jetson_Linux_R35.4.1_aarch64/Linux_for_Tegra/sources/tegra/optee-src/nv-optee/optee/optee_os/lib/libutee/trace_ext.c:28
    143c:	f9400bf3 	ldr	x19, [sp, #16]
    1440:	a8c27bfd 	ldp	x29, x30, [sp], #32
/home/nick2/optee-dependencies/Jetson_Linux_R35.4.1_aarch64/Linux_for_Tegra/sources/tegra/optee-src/nv-optee/optee/optee_os/lib/libutee/trace_ext.c:26
    1444:	140002d5 	b	1f98 <_utee_log>

0000000000001448 <trace_ext_get_thread_id>:
trace_ext_get_thread_id():
/home/nick2/optee-dependencies/Jetson_Linux_R35.4.1_aarch64/Linux_for_Tegra/sources/tegra/optee-src/nv-optee/optee/optee_os/lib/libutee/trace_ext.c:33
    1448:	12800000 	mov	w0, #0xffffffff            	// #-1
    144c:	d65f03c0 	ret

0000000000001450 <printf>:
printf():
/home/nick2/optee-dependencies/Jetson_Linux_R35.4.1_aarch64/Linux_for_Tegra/sources/tegra/optee-src/nv-optee/optee/optee_os/lib/libutee/trace_ext.c:41
    1450:	d108c3ff 	sub	sp, sp, #0x230
    1454:	a9007bfd 	stp	x29, x30, [sp]
    1458:	910003fd 	mov	x29, sp
    145c:	a90153f3 	stp	x19, x20, [sp, #16]
    1460:	aa0003f3 	mov	x19, x0
    1464:	910823e0 	add	x0, sp, #0x208
    1468:	a91f8be1 	stp	x1, x2, [sp, #504]
    146c:	90000081 	adrp	x1, 11000 <_DYNAMIC>
    1470:	3d805fe0 	str	q0, [sp, #368]
    1474:	3d8063e1 	str	q1, [sp, #384]
    1478:	3d8067e2 	str	q2, [sp, #400]
    147c:	3d806be3 	str	q3, [sp, #416]
    1480:	3d806fe4 	str	q4, [sp, #432]
    1484:	3d8073e5 	str	q5, [sp, #448]
    1488:	3d8077e6 	str	q6, [sp, #464]
    148c:	3d807be7 	str	q7, [sp, #480]
    1490:	f9409821 	ldr	x1, [x1, #304]
    1494:	a9001003 	stp	x3, x4, [x0]
    1498:	a9011805 	stp	x5, x6, [x0, #16]
    149c:	f90117e7 	str	x7, [sp, #552]
    14a0:	f9400020 	ldr	x0, [x1]
    14a4:	f900b7e0 	str	x0, [sp, #360]
    14a8:	d2800000 	mov	x0, #0x0                   	// #0
/home/nick2/optee-dependencies/Jetson_Linux_R35.4.1_aarch64/Linux_for_Tegra/sources/tegra/optee-src/nv-optee/optee/optee_os/lib/libutee/trace_ext.c:46
    14ac:	97fffb6f 	bl	268 <trace_get_level>
    14b0:	7100001f 	cmp	w0, #0x0
    14b4:	5400040d 	b.le	1534 <printf+0xe4>
/home/nick2/optee-dependencies/Jetson_Linux_R35.4.1_aarch64/Linux_for_Tegra/sources/tegra/optee-src/nv-optee/optee/optee_os/lib/libutee/trace_ext.c:49
    14b8:	9108c3e0 	add	x0, sp, #0x230
/home/nick2/optee-dependencies/Jetson_Linux_R35.4.1_aarch64/Linux_for_Tegra/sources/tegra/optee-src/nv-optee/optee/optee_os/lib/libutee/trace_ext.c:50
    14bc:	910083e3 	add	x3, sp, #0x20
/home/nick2/optee-dependencies/Jetson_Linux_R35.4.1_aarch64/Linux_for_Tegra/sources/tegra/optee-src/nv-optee/optee/optee_os/lib/libutee/trace_ext.c:49
    14c0:	a90483e0 	stp	x0, x0, [sp, #72]
    14c4:	9107c3e0 	add	x0, sp, #0x1f0
/home/nick2/optee-dependencies/Jetson_Linux_R35.4.1_aarch64/Linux_for_Tegra/sources/tegra/optee-src/nv-optee/optee/optee_os/lib/libutee/trace_ext.c:50
    14c8:	910123e1 	add	x1, sp, #0x48
/home/nick2/optee-dependencies/Jetson_Linux_R35.4.1_aarch64/Linux_for_Tegra/sources/tegra/optee-src/nv-optee/optee/optee_os/lib/libutee/trace_ext.c:49
    14cc:	f9002fe0 	str	x0, [sp, #88]
    14d0:	128006e0 	mov	w0, #0xffffffc8            	// #-56
    14d4:	b90063e0 	str	w0, [sp, #96]
    14d8:	12800fe0 	mov	w0, #0xffffff80            	// #-128
/home/nick2/optee-dependencies/Jetson_Linux_R35.4.1_aarch64/Linux_for_Tegra/sources/tegra/optee-src/nv-optee/optee/optee_os/lib/libutee/trace_ext.c:50
    14dc:	d2800402 	mov	x2, #0x20                  	// #32
    14e0:	9101a3f4 	add	x20, sp, #0x68
/home/nick2/optee-dependencies/Jetson_Linux_R35.4.1_aarch64/Linux_for_Tegra/sources/tegra/optee-src/nv-optee/optee/optee_os/lib/libutee/trace_ext.c:49
    14e4:	b90067e0 	str	w0, [sp, #100]
/home/nick2/optee-dependencies/Jetson_Linux_R35.4.1_aarch64/Linux_for_Tegra/sources/tegra/optee-src/nv-optee/optee/optee_os/lib/libutee/trace_ext.c:50
    14e8:	aa0303e0 	mov	x0, x3
    14ec:	97fffacd 	bl	20 <memcpy>
    14f0:	aa0003e3 	mov	x3, x0
    14f4:	aa1303e2 	mov	x2, x19
    14f8:	aa1403e0 	mov	x0, x20
    14fc:	d2802001 	mov	x1, #0x100                 	// #256
    1500:	94002c3e 	bl	c5f8 <vsnprintf>
    1504:	2a0003f3 	mov	w19, w0
/home/nick2/optee-dependencies/Jetson_Linux_R35.4.1_aarch64/Linux_for_Tegra/sources/tegra/optee-src/nv-optee/optee/optee_os/lib/libutee/trace_ext.c:53
    1508:	37f80060 	tbnz	w0, #31, 1514 <printf+0xc4>
/home/nick2/optee-dependencies/Jetson_Linux_R35.4.1_aarch64/Linux_for_Tegra/sources/tegra/optee-src/nv-optee/optee/optee_os/lib/libutee/trace_ext.c:56
    150c:	aa1403e0 	mov	x0, x20
    1510:	97ffffc4 	bl	1420 <trace_ext_puts>
/home/nick2/optee-dependencies/Jetson_Linux_R35.4.1_aarch64/Linux_for_Tegra/sources/tegra/optee-src/nv-optee/optee/optee_os/lib/libutee/trace_ext.c:59
    1514:	90000081 	adrp	x1, 11000 <_DYNAMIC>
    1518:	f9409821 	ldr	x1, [x1, #304]
    151c:	f940b7e0 	ldr	x0, [sp, #360]
    1520:	f9400022 	ldr	x2, [x1]
    1524:	eb020000 	subs	x0, x0, x2
    1528:	d2800002 	mov	x2, #0x0                   	// #0
    152c:	54000080 	b.eq	153c <printf+0xec>  // b.none
    1530:	97fffc12 	bl	578 <__stack_chk_fail>
/home/nick2/optee-dependencies/Jetson_Linux_R35.4.1_aarch64/Linux_for_Tegra/sources/tegra/optee-src/nv-optee/optee/optee_os/lib/libutee/trace_ext.c:47
    1534:	52800013 	mov	w19, #0x0                   	// #0
    1538:	17fffff7 	b	1514 <printf+0xc4>
/home/nick2/optee-dependencies/Jetson_Linux_R35.4.1_aarch64/Linux_for_Tegra/sources/tegra/optee-src/nv-optee/optee/optee_os/lib/libutee/trace_ext.c:59
    153c:	2a1303e0 	mov	w0, w19
    1540:	a9407bfd 	ldp	x29, x30, [sp]
    1544:	a94153f3 	ldp	x19, x20, [sp, #16]
    1548:	9108c3ff 	add	sp, sp, #0x230
    154c:	d65f03c0 	ret

0000000000001550 <puts>:
puts():
/home/nick2/optee-dependencies/Jetson_Linux_R35.4.1_aarch64/Linux_for_Tegra/sources/tegra/optee-src/nv-optee/optee/optee_os/lib/libutee/trace_ext.c:62
    1550:	a9be7bfd 	stp	x29, x30, [sp, #-32]!
    1554:	910003fd 	mov	x29, sp
    1558:	f9000bf3 	str	x19, [sp, #16]
    155c:	aa0003f3 	mov	x19, x0
/home/nick2/optee-dependencies/Jetson_Linux_R35.4.1_aarch64/Linux_for_Tegra/sources/tegra/optee-src/nv-optee/optee/optee_os/lib/libutee/trace_ext.c:63
    1560:	97fffb42 	bl	268 <trace_get_level>
    1564:	7100001f 	cmp	w0, #0x0
    1568:	540000cd 	b.le	1580 <puts+0x30>
/home/nick2/optee-dependencies/Jetson_Linux_R35.4.1_aarch64/Linux_for_Tegra/sources/tegra/optee-src/nv-optee/optee/optee_os/lib/libutee/trace_ext.c:64
    156c:	aa1303e0 	mov	x0, x19
    1570:	97ffffac 	bl	1420 <trace_ext_puts>
/home/nick2/optee-dependencies/Jetson_Linux_R35.4.1_aarch64/Linux_for_Tegra/sources/tegra/optee-src/nv-optee/optee/optee_os/lib/libutee/trace_ext.c:65
    1574:	d0000060 	adrp	x0, f000 <__text_end+0x26bc>
    1578:	911bc000 	add	x0, x0, #0x6f0
    157c:	97ffffa9 	bl	1420 <trace_ext_puts>
/home/nick2/optee-dependencies/Jetson_Linux_R35.4.1_aarch64/Linux_for_Tegra/sources/tegra/optee-src/nv-optee/optee/optee_os/lib/libutee/trace_ext.c:68
    1580:	52800020 	mov	w0, #0x1                   	// #1
    1584:	f9400bf3 	ldr	x19, [sp, #16]
    1588:	a8c27bfd 	ldp	x29, x30, [sp], #32
    158c:	d65f03c0 	ret

0000000000001590 <putchar>:
putchar():
/home/nick2/optee-dependencies/Jetson_Linux_R35.4.1_aarch64/Linux_for_Tegra/sources/tegra/optee-src/nv-optee/optee/optee_os/lib/libutee/trace_ext.c:71
    1590:	a9bd7bfd 	stp	x29, x30, [sp, #-48]!
    1594:	90000081 	adrp	x1, 11000 <_DYNAMIC>
    1598:	910003fd 	mov	x29, sp
    159c:	f9409821 	ldr	x1, [x1, #304]
    15a0:	f9000bf3 	str	x19, [sp, #16]
    15a4:	2a0003f3 	mov	w19, w0
/home/nick2/optee-dependencies/Jetson_Linux_R35.4.1_aarch64/Linux_for_Tegra/sources/tegra/optee-src/nv-optee/optee/optee_os/lib/libutee/trace_ext.c:72
    15a8:	390083f3 	strb	w19, [sp, #32]
/home/nick2/optee-dependencies/Jetson_Linux_R35.4.1_aarch64/Linux_for_Tegra/sources/tegra/optee-src/nv-optee/optee/optee_os/lib/libutee/trace_ext.c:71
    15ac:	f9400020 	ldr	x0, [x1]
    15b0:	f90017e0 	str	x0, [sp, #40]
    15b4:	d2800000 	mov	x0, #0x0                   	// #0
/home/nick2/optee-dependencies/Jetson_Linux_R35.4.1_aarch64/Linux_for_Tegra/sources/tegra/optee-src/nv-optee/optee/optee_os/lib/libutee/trace_ext.c:72
    15b8:	390087ff 	strb	wzr, [sp, #33]
/home/nick2/optee-dependencies/Jetson_Linux_R35.4.1_aarch64/Linux_for_Tegra/sources/tegra/optee-src/nv-optee/optee/optee_os/lib/libutee/trace_ext.c:74
    15bc:	97fffb2b 	bl	268 <trace_get_level>
    15c0:	7100001f 	cmp	w0, #0x0
    15c4:	5400006d 	b.le	15d0 <putchar+0x40>
/home/nick2/optee-dependencies/Jetson_Linux_R35.4.1_aarch64/Linux_for_Tegra/sources/tegra/optee-src/nv-optee/optee/optee_os/lib/libutee/trace_ext.c:75
    15c8:	910083e0 	add	x0, sp, #0x20
    15cc:	97ffff95 	bl	1420 <trace_ext_puts>
/home/nick2/optee-dependencies/Jetson_Linux_R35.4.1_aarch64/Linux_for_Tegra/sources/tegra/optee-src/nv-optee/optee/optee_os/lib/libutee/trace_ext.c:82
    15d0:	90000081 	adrp	x1, 11000 <_DYNAMIC>
/home/nick2/optee-dependencies/Jetson_Linux_R35.4.1_aarch64/Linux_for_Tegra/sources/tegra/optee-src/nv-optee/optee/optee_os/lib/libutee/trace_ext.c:81
    15d4:	12001e60 	and	w0, w19, #0xff
/home/nick2/optee-dependencies/Jetson_Linux_R35.4.1_aarch64/Linux_for_Tegra/sources/tegra/optee-src/nv-optee/optee/optee_os/lib/libutee/trace_ext.c:82
    15d8:	f9409821 	ldr	x1, [x1, #304]
    15dc:	f94017e2 	ldr	x2, [sp, #40]
    15e0:	f9400023 	ldr	x3, [x1]
    15e4:	eb030042 	subs	x2, x2, x3
    15e8:	d2800003 	mov	x3, #0x0                   	// #0
    15ec:	54000040 	b.eq	15f4 <putchar+0x64>  // b.none
    15f0:	97fffbe2 	bl	578 <__stack_chk_fail>
    15f4:	f9400bf3 	ldr	x19, [sp, #16]
    15f8:	a8c37bfd 	ldp	x29, x30, [sp], #48
    15fc:	d65f03c0 	ret

0000000000001600 <_get_fn_array>:
_get_fn_array():
/home/nick2/optee-dependencies/Jetson_Linux_R35.4.1_aarch64/Linux_for_Tegra/sources/tegra/optee-src/nv-optee/optee/optee_os/lib/libutee/user_ta_entry.c:84
    1600:	79403009 	ldrh	w9, [x0, #24]
/home/nick2/optee-dependencies/Jetson_Linux_R35.4.1_aarch64/Linux_for_Tegra/sources/tegra/optee-src/nv-optee/optee/optee_os/lib/libutee/user_ta_entry.c:95
    1604:	93407c21 	sxtw	x1, w1
/home/nick2/optee-dependencies/Jetson_Linux_R35.4.1_aarch64/Linux_for_Tegra/sources/tegra/optee-src/nv-optee/optee/optee_os/lib/libutee/user_ta_entry.c:98
    1608:	93407c42 	sxtw	x2, w2
/home/nick2/optee-dependencies/Jetson_Linux_R35.4.1_aarch64/Linux_for_Tegra/sources/tegra/optee-src/nv-optee/optee/optee_os/lib/libutee/user_ta_entry.c:84
    160c:	d2800007 	mov	x7, #0x0                   	// #0
/home/nick2/optee-dependencies/Jetson_Linux_R35.4.1_aarch64/Linux_for_Tegra/sources/tegra/optee-src/nv-optee/optee/optee_os/lib/libutee/user_ta_entry.c:85
    1610:	d280070a 	mov	x10, #0x38                  	// #56
/home/nick2/optee-dependencies/Jetson_Linux_R35.4.1_aarch64/Linux_for_Tegra/sources/tegra/optee-src/nv-optee/optee/optee_os/lib/libutee/user_ta_entry.c:84 (discriminator 1)
    1614:	eb07013f 	cmp	x9, x7
    1618:	54000048 	b.hi	1620 <_get_fn_array+0x20>  // b.pmore
/home/nick2/optee-dependencies/Jetson_Linux_R35.4.1_aarch64/Linux_for_Tegra/sources/tegra/optee-src/nv-optee/optee/optee_os/lib/libutee/user_ta_entry.c:104
    161c:	d65f03c0 	ret
/home/nick2/optee-dependencies/Jetson_Linux_R35.4.1_aarch64/Linux_for_Tegra/sources/tegra/optee-src/nv-optee/optee/optee_os/lib/libutee/user_ta_entry.c:85
    1620:	9b0a7ce5 	mul	x5, x7, x10
    1624:	f9400808 	ldr	x8, [x0, #16]
    1628:	8b050106 	add	x6, x8, x5
/home/nick2/optee-dependencies/Jetson_Linux_R35.4.1_aarch64/Linux_for_Tegra/sources/tegra/optee-src/nv-optee/optee/optee_os/lib/libutee/user_ta_entry.c:86
    162c:	b8656905 	ldr	w5, [x8, x5]
    1630:	710008bf 	cmp	w5, #0x2
    1634:	54000060 	b.eq	1640 <_get_fn_array+0x40>  // b.none
/home/nick2/optee-dependencies/Jetson_Linux_R35.4.1_aarch64/Linux_for_Tegra/sources/tegra/optee-src/nv-optee/optee/optee_os/lib/libutee/user_ta_entry.c:84
    1638:	910004e7 	add	x7, x7, #0x1
    163c:	17fffff6 	b	1614 <_get_fn_array+0x14>
/home/nick2/optee-dependencies/Jetson_Linux_R35.4.1_aarch64/Linux_for_Tegra/sources/tegra/optee-src/nv-optee/optee/optee_os/lib/libutee/user_ta_entry.c:89
    1640:	f9400008 	ldr	x8, [x0]
    1644:	f94008c5 	ldr	x5, [x6, #16]
/home/nick2/optee-dependencies/Jetson_Linux_R35.4.1_aarch64/Linux_for_Tegra/sources/tegra/optee-src/nv-optee/optee/optee_os/lib/libutee/user_ta_entry.c:88
    1648:	f94014c6 	ldr	x6, [x6, #40]
/home/nick2/optee-dependencies/Jetson_Linux_R35.4.1_aarch64/Linux_for_Tegra/sources/tegra/optee-src/nv-optee/optee/optee_os/lib/libutee/user_ta_entry.c:89
    164c:	8b0800a5 	add	x5, x5, x8
/home/nick2/optee-dependencies/Jetson_Linux_R35.4.1_aarch64/Linux_for_Tegra/sources/tegra/optee-src/nv-optee/optee/optee_os/lib/libutee/user_ta_entry.c:90
    1650:	927cecc6 	and	x6, x6, #0xfffffffffffffff0
    1654:	8b0500c6 	add	x6, x6, x5
/home/nick2/optee-dependencies/Jetson_Linux_R35.4.1_aarch64/Linux_for_Tegra/sources/tegra/optee-src/nv-optee/optee/optee_os/lib/libutee/user_ta_entry.c:90 (discriminator 1)
    1658:	eb0600bf 	cmp	x5, x6
    165c:	54fffee0 	b.eq	1638 <_get_fn_array+0x38>  // b.none
/home/nick2/optee-dependencies/Jetson_Linux_R35.4.1_aarch64/Linux_for_Tegra/sources/tegra/optee-src/nv-optee/optee/optee_os/lib/libutee/user_ta_entry.c:91
    1660:	f9400068 	ldr	x8, [x3]
    1664:	b4000068 	cbz	x8, 1670 <_get_fn_array+0x70>
/home/nick2/optee-dependencies/Jetson_Linux_R35.4.1_aarch64/Linux_for_Tegra/sources/tegra/optee-src/nv-optee/optee/optee_os/lib/libutee/user_ta_entry.c:91 (discriminator 1)
    1668:	f9400088 	ldr	x8, [x4]
    166c:	b5fffe68 	cbnz	x8, 1638 <_get_fn_array+0x38>
/home/nick2/optee-dependencies/Jetson_Linux_R35.4.1_aarch64/Linux_for_Tegra/sources/tegra/optee-src/nv-optee/optee/optee_os/lib/libutee/user_ta_entry.c:93
    1670:	f94000a8 	ldr	x8, [x5]
    1674:	b4fffe28 	cbz	x8, 1638 <_get_fn_array+0x38>
/home/nick2/optee-dependencies/Jetson_Linux_R35.4.1_aarch64/Linux_for_Tegra/sources/tegra/optee-src/nv-optee/optee/optee_os/lib/libutee/user_ta_entry.c:95
    1678:	eb01011f 	cmp	x8, x1
    167c:	540000e1 	b.ne	1698 <_get_fn_array+0x98>  // b.any
/home/nick2/optee-dependencies/Jetson_Linux_R35.4.1_aarch64/Linux_for_Tegra/sources/tegra/optee-src/nv-optee/optee/optee_os/lib/libutee/user_ta_entry.c:96
    1680:	f940000b 	ldr	x11, [x0]
    1684:	f94004a8 	ldr	x8, [x5, #8]
    1688:	8b0b0108 	add	x8, x8, x11
    168c:	f9000068 	str	x8, [x3]
/home/nick2/optee-dependencies/Jetson_Linux_R35.4.1_aarch64/Linux_for_Tegra/sources/tegra/optee-src/nv-optee/optee/optee_os/lib/libutee/user_ta_entry.c:101 (discriminator 2)
    1690:	910040a5 	add	x5, x5, #0x10
/home/nick2/optee-dependencies/Jetson_Linux_R35.4.1_aarch64/Linux_for_Tegra/sources/tegra/optee-src/nv-optee/optee/optee_os/lib/libutee/user_ta_entry.c:90 (discriminator 2)
    1694:	17fffff1 	b	1658 <_get_fn_array+0x58>
/home/nick2/optee-dependencies/Jetson_Linux_R35.4.1_aarch64/Linux_for_Tegra/sources/tegra/optee-src/nv-optee/optee/optee_os/lib/libutee/user_ta_entry.c:98
    1698:	eb02011f 	cmp	x8, x2
    169c:	54ffffa1 	b.ne	1690 <_get_fn_array+0x90>  // b.any
/home/nick2/optee-dependencies/Jetson_Linux_R35.4.1_aarch64/Linux_for_Tegra/sources/tegra/optee-src/nv-optee/optee/optee_os/lib/libutee/user_ta_entry.c:99
    16a0:	f94004a8 	ldr	x8, [x5, #8]
    16a4:	d343fd08 	lsr	x8, x8, #3
    16a8:	f9000088 	str	x8, [x4]
    16ac:	17fffff9 	b	1690 <_get_fn_array+0x90>

00000000000016b0 <_fini_iterate_phdr_cb>:
_fini_iterate_phdr_cb():
/home/nick2/optee-dependencies/Jetson_Linux_R35.4.1_aarch64/Linux_for_Tegra/sources/tegra/optee-src/nv-optee/optee/optee_os/lib/libutee/user_ta_entry.c:140
    16b0:	a9bc7bfd 	stp	x29, x30, [sp, #-64]!
    16b4:	90000081 	adrp	x1, 11000 <_DYNAMIC>
    16b8:	910003fd 	mov	x29, sp
    16bc:	f9409821 	ldr	x1, [x1, #304]
/home/nick2/optee-dependencies/Jetson_Linux_R35.4.1_aarch64/Linux_for_Tegra/sources/tegra/optee-src/nv-optee/optee/optee_os/lib/libutee/user_ta_entry.c:145
    16c0:	9100c3e4 	add	x4, sp, #0x30
    16c4:	9100a3e3 	add	x3, sp, #0x28
/home/nick2/optee-dependencies/Jetson_Linux_R35.4.1_aarch64/Linux_for_Tegra/sources/tegra/optee-src/nv-optee/optee/optee_os/lib/libutee/user_ta_entry.c:142
    16c8:	a902ffff 	stp	xzr, xzr, [sp, #40]
/home/nick2/optee-dependencies/Jetson_Linux_R35.4.1_aarch64/Linux_for_Tegra/sources/tegra/optee-src/nv-optee/optee/optee_os/lib/libutee/user_ta_entry.c:140
    16cc:	f9400022 	ldr	x2, [x1]
    16d0:	f9001fe2 	str	x2, [sp, #56]
    16d4:	d2800002 	mov	x2, #0x0                   	// #0
    16d8:	f9000bf3 	str	x19, [sp, #16]
/home/nick2/optee-dependencies/Jetson_Linux_R35.4.1_aarch64/Linux_for_Tegra/sources/tegra/optee-src/nv-optee/optee/optee_os/lib/libutee/user_ta_entry.c:147
    16dc:	d2800033 	mov	x19, #0x1                   	// #1
/home/nick2/optee-dependencies/Jetson_Linux_R35.4.1_aarch64/Linux_for_Tegra/sources/tegra/optee-src/nv-optee/optee/optee_os/lib/libutee/user_ta_entry.c:145
    16e0:	52800382 	mov	w2, #0x1c                  	// #28
    16e4:	52800341 	mov	w1, #0x1a                  	// #26
    16e8:	97ffffc6 	bl	1600 <_get_fn_array>
/home/nick2/optee-dependencies/Jetson_Linux_R35.4.1_aarch64/Linux_for_Tegra/sources/tegra/optee-src/nv-optee/optee/optee_os/lib/libutee/user_ta_entry.c:147 (discriminator 1)
    16ec:	f9401be0 	ldr	x0, [sp, #48]
    16f0:	eb13001f 	cmp	x0, x19
    16f4:	54000122 	b.cs	1718 <_fini_iterate_phdr_cb+0x68>  // b.hs, b.nlast
/home/nick2/optee-dependencies/Jetson_Linux_R35.4.1_aarch64/Linux_for_Tegra/sources/tegra/optee-src/nv-optee/optee/optee_os/lib/libutee/user_ta_entry.c:151
    16f8:	90000081 	adrp	x1, 11000 <_DYNAMIC>
    16fc:	f9409821 	ldr	x1, [x1, #304]
    1700:	f9401fe0 	ldr	x0, [sp, #56]
    1704:	f9400022 	ldr	x2, [x1]
    1708:	eb020000 	subs	x0, x0, x2
    170c:	d2800002 	mov	x2, #0x0                   	// #0
    1710:	54000100 	b.eq	1730 <_fini_iterate_phdr_cb+0x80>  // b.none
    1714:	97fffb99 	bl	578 <__stack_chk_fail>
/home/nick2/optee-dependencies/Jetson_Linux_R35.4.1_aarch64/Linux_for_Tegra/sources/tegra/optee-src/nv-optee/optee/optee_os/lib/libutee/user_ta_entry.c:148 (discriminator 3)
    1718:	f94017e1 	ldr	x1, [sp, #40]
    171c:	cb130000 	sub	x0, x0, x19
/home/nick2/optee-dependencies/Jetson_Linux_R35.4.1_aarch64/Linux_for_Tegra/sources/tegra/optee-src/nv-optee/optee/optee_os/lib/libutee/user_ta_entry.c:147 (discriminator 3)
    1720:	91000673 	add	x19, x19, #0x1
/home/nick2/optee-dependencies/Jetson_Linux_R35.4.1_aarch64/Linux_for_Tegra/sources/tegra/optee-src/nv-optee/optee/optee_os/lib/libutee/user_ta_entry.c:148 (discriminator 3)
    1724:	f8607820 	ldr	x0, [x1, x0, lsl #3]
    1728:	d63f0000 	blr	x0
/home/nick2/optee-dependencies/Jetson_Linux_R35.4.1_aarch64/Linux_for_Tegra/sources/tegra/optee-src/nv-optee/optee/optee_os/lib/libutee/user_ta_entry.c:147 (discriminator 3)
    172c:	17fffff0 	b	16ec <_fini_iterate_phdr_cb+0x3c>
/home/nick2/optee-dependencies/Jetson_Linux_R35.4.1_aarch64/Linux_for_Tegra/sources/tegra/optee-src/nv-optee/optee/optee_os/lib/libutee/user_ta_entry.c:151
    1730:	52800000 	mov	w0, #0x0                   	// #0
    1734:	f9400bf3 	ldr	x19, [sp, #16]
    1738:	a8c47bfd 	ldp	x29, x30, [sp], #64
    173c:	d65f03c0 	ret

0000000000001740 <ta_header_get_session>:
ta_header_get_session():
/home/nick2/optee-dependencies/Jetson_Linux_R35.4.1_aarch64/Linux_for_Tegra/sources/tegra/optee-src/nv-optee/optee/optee_os/lib/libutee/user_ta_entry.c:208
    1740:	2a0003e1 	mov	w1, w0
/home/nick2/optee-dependencies/Jetson_Linux_R35.4.1_aarch64/Linux_for_Tegra/sources/tegra/optee-src/nv-optee/optee/optee_os/lib/libutee/user_ta_entry.c:211
    1744:	90000080 	adrp	x0, 11000 <_DYNAMIC>
    1748:	f9428000 	ldr	x0, [x0, #1280]
/home/nick2/optee-dependencies/Jetson_Linux_R35.4.1_aarch64/Linux_for_Tegra/sources/tegra/optee-src/nv-optee/optee/optee_os/lib/libutee/user_ta_entry.c:211 (discriminator 1)
    174c:	b5000040 	cbnz	x0, 1754 <ta_header_get_session+0x14>
/home/nick2/optee-dependencies/Jetson_Linux_R35.4.1_aarch64/Linux_for_Tegra/sources/tegra/optee-src/nv-optee/optee/optee_os/lib/libutee/user_ta_entry.c:216
    1750:	d65f03c0 	ret
/home/nick2/optee-dependencies/Jetson_Linux_R35.4.1_aarch64/Linux_for_Tegra/sources/tegra/optee-src/nv-optee/optee/optee_os/lib/libutee/user_ta_entry.c:212
    1754:	b9400002 	ldr	w2, [x0]
    1758:	6b01005f 	cmp	w2, w1
    175c:	54ffffa0 	b.eq	1750 <ta_header_get_session+0x10>  // b.none
/home/nick2/optee-dependencies/Jetson_Linux_R35.4.1_aarch64/Linux_for_Tegra/sources/tegra/optee-src/nv-optee/optee/optee_os/lib/libutee/user_ta_entry.c:211 (discriminator 2)
    1760:	f9400800 	ldr	x0, [x0, #16]
    1764:	17fffffa 	b	174c <ta_header_get_session+0xc>

0000000000001768 <to_utee_params>:
to_utee_params():
/home/nick2/optee-dependencies/Jetson_Linux_R35.4.1_aarch64/Linux_for_Tegra/sources/tegra/optee-src/nv-optee/optee/optee_os/lib/libutee/user_ta_entry.c:270
    1768:	2a0103e3 	mov	w3, w1
    176c:	f8008403 	str	x3, [x0], #8
    1770:	52800003 	mov	w3, #0x0                   	// #0
/home/nick2/optee-dependencies/Jetson_Linux_R35.4.1_aarch64/Linux_for_Tegra/sources/tegra/optee-src/nv-optee/optee/optee_os/lib/libutee/user_ta_entry.c:272
    1774:	1ac32425 	lsr	w5, w1, w3
    1778:	12000ca4 	and	w4, w5, #0xf
    177c:	721e04bf 	tst	w5, #0xc
    1780:	54000181 	b.ne	17b0 <to_utee_params+0x48>  // b.any
    1784:	340001c4 	cbz	w4, 17bc <to_utee_params+0x54>
/home/nick2/optee-dependencies/Jetson_Linux_R35.4.1_aarch64/Linux_for_Tegra/sources/tegra/optee-src/nv-optee/optee/optee_os/lib/libutee/user_ta_entry.c:276
    1788:	b9400044 	ldr	w4, [x2]
    178c:	f9000004 	str	x4, [x0]
/home/nick2/optee-dependencies/Jetson_Linux_R35.4.1_aarch64/Linux_for_Tegra/sources/tegra/optee-src/nv-optee/optee/optee_os/lib/libutee/user_ta_entry.c:277
    1790:	b9400444 	ldr	w4, [x2, #4]
/home/nick2/optee-dependencies/Jetson_Linux_R35.4.1_aarch64/Linux_for_Tegra/sources/tegra/optee-src/nv-optee/optee/optee_os/lib/libutee/user_ta_entry.c:283
    1794:	f9000404 	str	x4, [x0, #8]
/home/nick2/optee-dependencies/Jetson_Linux_R35.4.1_aarch64/Linux_for_Tegra/sources/tegra/optee-src/nv-optee/optee/optee_os/lib/libutee/user_ta_entry.c:271 (discriminator 2)
    1798:	11001063 	add	w3, w3, #0x4
    179c:	91004042 	add	x2, x2, #0x10
    17a0:	91004000 	add	x0, x0, #0x10
    17a4:	7100407f 	cmp	w3, #0x10
    17a8:	54fffe61 	b.ne	1774 <to_utee_params+0xc>  // b.any
/home/nick2/optee-dependencies/Jetson_Linux_R35.4.1_aarch64/Linux_for_Tegra/sources/tegra/optee-src/nv-optee/optee/optee_os/lib/libutee/user_ta_entry.c:291
    17ac:	d65f03c0 	ret
/home/nick2/optee-dependencies/Jetson_Linux_R35.4.1_aarch64/Linux_for_Tegra/sources/tegra/optee-src/nv-optee/optee/optee_os/lib/libutee/user_ta_entry.c:272
    17b0:	51001484 	sub	w4, w4, #0x5
    17b4:	7100089f 	cmp	w4, #0x2
    17b8:	54000069 	b.ls	17c4 <to_utee_params+0x5c>  // b.plast
/home/nick2/optee-dependencies/Jetson_Linux_R35.4.1_aarch64/Linux_for_Tegra/sources/tegra/optee-src/nv-optee/optee/optee_os/lib/libutee/user_ta_entry.c:287
    17bc:	a9007c1f 	stp	xzr, xzr, [x0]
/home/nick2/optee-dependencies/Jetson_Linux_R35.4.1_aarch64/Linux_for_Tegra/sources/tegra/optee-src/nv-optee/optee/optee_os/lib/libutee/user_ta_entry.c:288
    17c0:	17fffff6 	b	1798 <to_utee_params+0x30>
/home/nick2/optee-dependencies/Jetson_Linux_R35.4.1_aarch64/Linux_for_Tegra/sources/tegra/optee-src/nv-optee/optee/optee_os/lib/libutee/user_ta_entry.c:282
    17c4:	f9400044 	ldr	x4, [x2]
    17c8:	f9000004 	str	x4, [x0]
/home/nick2/optee-dependencies/Jetson_Linux_R35.4.1_aarch64/Linux_for_Tegra/sources/tegra/optee-src/nv-optee/optee/optee_os/lib/libutee/user_ta_entry.c:283
    17cc:	f9400444 	ldr	x4, [x2, #8]
    17d0:	17fffff1 	b	1794 <to_utee_params+0x2c>

00000000000017d4 <from_utee_params>:
from_utee_params():
/home/nick2/optee-dependencies/Jetson_Linux_R35.4.1_aarch64/Linux_for_Tegra/sources/tegra/optee-src/nv-optee/optee/optee_os/lib/libutee/user_ta_entry.c:298
    17d4:	f8408445 	ldr	x5, [x2], #8
    17d8:	52800003 	mov	w3, #0x0                   	// #0
    17dc:	2a0503e9 	mov	w9, w5
/home/nick2/optee-dependencies/Jetson_Linux_R35.4.1_aarch64/Linux_for_Tegra/sources/tegra/optee-src/nv-optee/optee/optee_os/lib/libutee/user_ta_entry.c:304
    17e0:	1ac32528 	lsr	w8, w9, w3
    17e4:	12000d04 	and	w4, w8, #0xf
    17e8:	721e051f 	tst	w8, #0xc
/home/nick2/optee-dependencies/Jetson_Linux_R35.4.1_aarch64/Linux_for_Tegra/sources/tegra/optee-src/nv-optee/optee/optee_os/lib/libutee/user_ta_entry.c:302
    17ec:	a9401847 	ldp	x7, x6, [x2]
/home/nick2/optee-dependencies/Jetson_Linux_R35.4.1_aarch64/Linux_for_Tegra/sources/tegra/optee-src/nv-optee/optee/optee_os/lib/libutee/user_ta_entry.c:304
    17f0:	54000081 	b.ne	1800 <from_utee_params+0x2c>  // b.any
    17f4:	340000c4 	cbz	w4, 180c <from_utee_params+0x38>
/home/nick2/optee-dependencies/Jetson_Linux_R35.4.1_aarch64/Linux_for_Tegra/sources/tegra/optee-src/nv-optee/optee/optee_os/lib/libutee/user_ta_entry.c:309
    17f8:	29001807 	stp	w7, w6, [x0]
/home/nick2/optee-dependencies/Jetson_Linux_R35.4.1_aarch64/Linux_for_Tegra/sources/tegra/optee-src/nv-optee/optee/optee_os/lib/libutee/user_ta_entry.c:310
    17fc:	14000004 	b	180c <from_utee_params+0x38>
/home/nick2/optee-dependencies/Jetson_Linux_R35.4.1_aarch64/Linux_for_Tegra/sources/tegra/optee-src/nv-optee/optee/optee_os/lib/libutee/user_ta_entry.c:304
    1800:	51001484 	sub	w4, w4, #0x5
    1804:	7100089f 	cmp	w4, #0x2
    1808:	54000109 	b.ls	1828 <from_utee_params+0x54>  // b.plast
/home/nick2/optee-dependencies/Jetson_Linux_R35.4.1_aarch64/Linux_for_Tegra/sources/tegra/optee-src/nv-optee/optee/optee_os/lib/libutee/user_ta_entry.c:300 (discriminator 2)
    180c:	11001063 	add	w3, w3, #0x4
    1810:	91004042 	add	x2, x2, #0x10
    1814:	91004000 	add	x0, x0, #0x10
    1818:	7100407f 	cmp	w3, #0x10
    181c:	54fffe21 	b.ne	17e0 <from_utee_params+0xc>  // b.any
/home/nick2/optee-dependencies/Jetson_Linux_R35.4.1_aarch64/Linux_for_Tegra/sources/tegra/optee-src/nv-optee/optee/optee_os/lib/libutee/user_ta_entry.c:323
    1820:	b9000025 	str	w5, [x1]
/home/nick2/optee-dependencies/Jetson_Linux_R35.4.1_aarch64/Linux_for_Tegra/sources/tegra/optee-src/nv-optee/optee/optee_os/lib/libutee/user_ta_entry.c:324
    1824:	d65f03c0 	ret
/home/nick2/optee-dependencies/Jetson_Linux_R35.4.1_aarch64/Linux_for_Tegra/sources/tegra/optee-src/nv-optee/optee/optee_os/lib/libutee/user_ta_entry.c:315
    1828:	a9001807 	stp	x7, x6, [x0]
/home/nick2/optee-dependencies/Jetson_Linux_R35.4.1_aarch64/Linux_for_Tegra/sources/tegra/optee-src/nv-optee/optee/optee_os/lib/libutee/user_ta_entry.c:316
    182c:	17fffff8 	b	180c <from_utee_params+0x38>

0000000000001830 <_init_iterate_phdr_cb>:
_init_iterate_phdr_cb():
/home/nick2/optee-dependencies/Jetson_Linux_R35.4.1_aarch64/Linux_for_Tegra/sources/tegra/optee-src/nv-optee/optee/optee_os/lib/libutee/user_ta_entry.c:60
    1830:	a9bd7bfd 	stp	x29, x30, [sp, #-48]!
    1834:	910003fd 	mov	x29, sp
    1838:	a90153f3 	stp	x19, x20, [sp, #16]
    183c:	aa0203f4 	mov	x20, x2
    1840:	f90013f5 	str	x21, [sp, #32]
    1844:	aa0003f5 	mov	x21, x0
/home/nick2/optee-dependencies/Jetson_Linux_R35.4.1_aarch64/Linux_for_Tegra/sources/tegra/optee-src/nv-optee/optee/optee_os/lib/libutee/user_ta_entry.c:64
    1848:	d2800a00 	mov	x0, #0x50                  	// #80
    184c:	94002a4d 	bl	c180 <malloc>
/home/nick2/optee-dependencies/Jetson_Linux_R35.4.1_aarch64/Linux_for_Tegra/sources/tegra/optee-src/nv-optee/optee/optee_os/lib/libutee/user_ta_entry.c:65
    1850:	b5000140 	cbnz	x0, 1878 <_init_iterate_phdr_cb+0x48>
/home/nick2/optee-dependencies/Jetson_Linux_R35.4.1_aarch64/Linux_for_Tegra/sources/tegra/optee-src/nv-optee/optee/optee_os/lib/libutee/user_ta_entry.c:66
    1854:	d0000064 	adrp	x4, f000 <__text_end+0x26bc>
    1858:	9124d084 	add	x4, x4, #0x934
    185c:	d0000060 	adrp	x0, f000 <__text_end+0x26bc>
    1860:	91260c00 	add	x0, x0, #0x983
    1864:	52800023 	mov	w3, #0x1                   	// #1
    1868:	52800022 	mov	w2, #0x1                   	// #1
    186c:	52800841 	mov	w1, #0x42                  	// #66
    1870:	97fffb09 	bl	494 <trace_printf>
/home/nick2/optee-dependencies/Jetson_Linux_R35.4.1_aarch64/Linux_for_Tegra/sources/tegra/optee-src/nv-optee/optee/optee_os/lib/libutee/user_ta_entry.c:67
    1874:	97fffee3 	bl	1400 <abort>
    1878:	aa0003f3 	mov	x19, x0
/home/nick2/optee-dependencies/Jetson_Linux_R35.4.1_aarch64/Linux_for_Tegra/sources/tegra/optee-src/nv-optee/optee/optee_os/lib/libutee/user_ta_entry.c:69
    187c:	aa1503e1 	mov	x1, x21
    1880:	d2800802 	mov	x2, #0x40                  	// #64
    1884:	97fff9e7 	bl	20 <memcpy>
/home/nick2/optee-dependencies/Jetson_Linux_R35.4.1_aarch64/Linux_for_Tegra/sources/tegra/optee-src/nv-optee/optee/optee_os/lib/libutee/user_ta_entry.c:70
    1888:	90000080 	adrp	x0, 11000 <_DYNAMIC>
    188c:	91140000 	add	x0, x0, #0x500
/home/nick2/optee-dependencies/Jetson_Linux_R35.4.1_aarch64/Linux_for_Tegra/sources/tegra/optee-src/nv-optee/optee/optee_os/lib/libutee/user_ta_entry.c:73
    1890:	f94013f5 	ldr	x21, [sp, #32]
/home/nick2/optee-dependencies/Jetson_Linux_R35.4.1_aarch64/Linux_for_Tegra/sources/tegra/optee-src/nv-optee/optee/optee_os/lib/libutee/user_ta_entry.c:70
    1894:	f9400c01 	ldr	x1, [x0, #24]
    1898:	a904067f 	stp	xzr, x1, [x19, #64]
    189c:	f9000033 	str	x19, [x1]
    18a0:	91010273 	add	x19, x19, #0x40
    18a4:	f9000c13 	str	x19, [x0, #24]
/home/nick2/optee-dependencies/Jetson_Linux_R35.4.1_aarch64/Linux_for_Tegra/sources/tegra/optee-src/nv-optee/optee/optee_os/lib/libutee/user_ta_entry.c:71
    18a8:	f9400280 	ldr	x0, [x20]
    18ac:	91000400 	add	x0, x0, #0x1
    18b0:	f9000280 	str	x0, [x20]
/home/nick2/optee-dependencies/Jetson_Linux_R35.4.1_aarch64/Linux_for_Tegra/sources/tegra/optee-src/nv-optee/optee/optee_os/lib/libutee/user_ta_entry.c:73
    18b4:	52800000 	mov	w0, #0x0                   	// #0
    18b8:	a94153f3 	ldp	x19, x20, [sp, #16]
    18bc:	a8c37bfd 	ldp	x29, x30, [sp], #48
    18c0:	d65f03c0 	ret

00000000000018c4 <__utee_call_elf_init_fn>:
__utee_call_elf_init_fn():
/home/nick2/optee-dependencies/Jetson_Linux_R35.4.1_aarch64/Linux_for_Tegra/sources/tegra/optee-src/nv-optee/optee/optee_os/lib/libutee/user_ta_entry.c:107
    18c4:	a9b97bfd 	stp	x29, x30, [sp, #-112]!
    18c8:	90000080 	adrp	x0, 11000 <_DYNAMIC>
    18cc:	910003fd 	mov	x29, sp
    18d0:	f9409800 	ldr	x0, [x0, #304]
    18d4:	a90153f3 	stp	x19, x20, [sp, #16]
/home/nick2/optee-dependencies/Jetson_Linux_R35.4.1_aarch64/Linux_for_Tegra/sources/tegra/optee-src/nv-optee/optee/optee_os/lib/libutee/user_ta_entry.c:111
    18d8:	d2800014 	mov	x20, #0x0                   	// #0
/home/nick2/optee-dependencies/Jetson_Linux_R35.4.1_aarch64/Linux_for_Tegra/sources/tegra/optee-src/nv-optee/optee/optee_os/lib/libutee/user_ta_entry.c:107
    18dc:	f9400001 	ldr	x1, [x0]
    18e0:	f90037e1 	str	x1, [sp, #104]
    18e4:	d2800001 	mov	x1, #0x0                   	// #0
/home/nick2/optee-dependencies/Jetson_Linux_R35.4.1_aarch64/Linux_for_Tegra/sources/tegra/optee-src/nv-optee/optee/optee_os/lib/libutee/user_ta_entry.c:116
    18e8:	90000000 	adrp	x0, 1000 <kprintf.constprop.0+0x874>
    18ec:	9120c000 	add	x0, x0, #0x830
    18f0:	910163e1 	add	x1, sp, #0x58
/home/nick2/optee-dependencies/Jetson_Linux_R35.4.1_aarch64/Linux_for_Tegra/sources/tegra/optee-src/nv-optee/optee/optee_os/lib/libutee/user_ta_entry.c:107
    18f4:	a9025bf5 	stp	x21, x22, [sp, #32]
    18f8:	a90363f7 	stp	x23, x24, [sp, #48]
    18fc:	90000097 	adrp	x23, 11000 <_DYNAMIC>
    1900:	aa1703f8 	mov	x24, x23
    1904:	a9046bf9 	stp	x25, x26, [sp, #64]
/home/nick2/optee-dependencies/Jetson_Linux_R35.4.1_aarch64/Linux_for_Tegra/sources/tegra/optee-src/nv-optee/optee/optee_os/lib/libutee/user_ta_entry.c:122
    1908:	910183f9 	add	x25, sp, #0x60
    190c:	910143fa 	add	x26, sp, #0x50
/home/nick2/optee-dependencies/Jetson_Linux_R35.4.1_aarch64/Linux_for_Tegra/sources/tegra/optee-src/nv-optee/optee/optee_os/lib/libutee/user_ta_entry.c:109
    1910:	a9057fff 	stp	xzr, xzr, [sp, #80]
/home/nick2/optee-dependencies/Jetson_Linux_R35.4.1_aarch64/Linux_for_Tegra/sources/tegra/optee-src/nv-optee/optee/optee_os/lib/libutee/user_ta_entry.c:110
    1914:	f90033ff 	str	xzr, [sp, #96]
/home/nick2/optee-dependencies/Jetson_Linux_R35.4.1_aarch64/Linux_for_Tegra/sources/tegra/optee-src/nv-optee/optee/optee_os/lib/libutee/user_ta_entry.c:116
    1918:	94001480 	bl	6b18 <dl_iterate_phdr>
/home/nick2/optee-dependencies/Jetson_Linux_R35.4.1_aarch64/Linux_for_Tegra/sources/tegra/optee-src/nv-optee/optee/optee_os/lib/libutee/user_ta_entry.c:119
    191c:	90000081 	adrp	x1, 11000 <_DYNAMIC>
    1920:	91140020 	add	x0, x1, #0x500
    1924:	aa0103f3 	mov	x19, x1
    1928:	f9400c00 	ldr	x0, [x0, #24]
    192c:	f9400400 	ldr	x0, [x0, #8]
    1930:	f9400015 	ldr	x21, [x0]
/home/nick2/optee-dependencies/Jetson_Linux_R35.4.1_aarch64/Linux_for_Tegra/sources/tegra/optee-src/nv-optee/optee/optee_os/lib/libutee/user_ta_entry.c:119 (discriminator 1)
    1934:	f942e2e1 	ldr	x1, [x23, #1472]
    1938:	b5000175 	cbnz	x21, 1964 <__utee_call_elf_init_fn+0xa0>
/home/nick2/optee-dependencies/Jetson_Linux_R35.4.1_aarch64/Linux_for_Tegra/sources/tegra/optee-src/nv-optee/optee/optee_os/lib/libutee/user_ta_entry.c:130
    193c:	8b010294 	add	x20, x20, x1
/home/nick2/optee-dependencies/Jetson_Linux_R35.4.1_aarch64/Linux_for_Tegra/sources/tegra/optee-src/nv-optee/optee/optee_os/lib/libutee/user_ta_entry.c:132
    1940:	91140261 	add	x1, x19, #0x500
/home/nick2/optee-dependencies/Jetson_Linux_R35.4.1_aarch64/Linux_for_Tegra/sources/tegra/optee-src/nv-optee/optee/optee_os/lib/libutee/user_ta_entry.c:133
    1944:	aa0103f3 	mov	x19, x1
/home/nick2/optee-dependencies/Jetson_Linux_R35.4.1_aarch64/Linux_for_Tegra/sources/tegra/optee-src/nv-optee/optee/optee_os/lib/libutee/user_ta_entry.c:130
    1948:	f902e314 	str	x20, [x24, #1472]
/home/nick2/optee-dependencies/Jetson_Linux_R35.4.1_aarch64/Linux_for_Tegra/sources/tegra/optee-src/nv-optee/optee/optee_os/lib/libutee/user_ta_entry.c:132
    194c:	f9400820 	ldr	x0, [x1, #16]
/home/nick2/optee-dependencies/Jetson_Linux_R35.4.1_aarch64/Linux_for_Tegra/sources/tegra/optee-src/nv-optee/optee/optee_os/lib/libutee/user_ta_entry.c:132 (discriminator 2)
    1950:	b40004a0 	cbz	x0, 19e4 <__utee_call_elf_init_fn+0x120>
    1954:	a9440414 	ldp	x20, x1, [x0, #64]
/home/nick2/optee-dependencies/Jetson_Linux_R35.4.1_aarch64/Linux_for_Tegra/sources/tegra/optee-src/nv-optee/optee/optee_os/lib/libutee/user_ta_entry.c:133 (discriminator 3)
    1958:	b50003b4 	cbnz	x20, 19cc <__utee_call_elf_init_fn+0x108>
/home/nick2/optee-dependencies/Jetson_Linux_R35.4.1_aarch64/Linux_for_Tegra/sources/tegra/optee-src/nv-optee/optee/optee_os/lib/libutee/user_ta_entry.c:133 (discriminator 2)
    195c:	f9000e61 	str	x1, [x19, #24]
    1960:	1400001c 	b	19d0 <__utee_call_elf_init_fn+0x10c>
/home/nick2/optee-dependencies/Jetson_Linux_R35.4.1_aarch64/Linux_for_Tegra/sources/tegra/optee-src/nv-optee/optee/optee_os/lib/libutee/user_ta_entry.c:120
    1964:	f9402fe0 	ldr	x0, [sp, #88]
    1968:	cb010000 	sub	x0, x0, x1
    196c:	eb14001f 	cmp	x0, x20
    1970:	54fffe60 	b.eq	193c <__utee_call_elf_init_fn+0x78>  // b.none
/home/nick2/optee-dependencies/Jetson_Linux_R35.4.1_aarch64/Linux_for_Tegra/sources/tegra/optee-src/nv-optee/optee/optee_os/lib/libutee/user_ta_entry.c:124
    1974:	d2800016 	mov	x22, #0x0                   	// #0
/home/nick2/optee-dependencies/Jetson_Linux_R35.4.1_aarch64/Linux_for_Tegra/sources/tegra/optee-src/nv-optee/optee/optee_os/lib/libutee/user_ta_entry.c:122
    1978:	aa1903e4 	mov	x4, x25
    197c:	aa1a03e3 	mov	x3, x26
    1980:	aa1503e0 	mov	x0, x21
    1984:	52800362 	mov	w2, #0x1b                  	// #27
    1988:	52800321 	mov	w1, #0x19                  	// #25
    198c:	97ffff1d 	bl	1600 <_get_fn_array>
/home/nick2/optee-dependencies/Jetson_Linux_R35.4.1_aarch64/Linux_for_Tegra/sources/tegra/optee-src/nv-optee/optee/optee_os/lib/libutee/user_ta_entry.c:124 (discriminator 1)
    1990:	f94033e0 	ldr	x0, [sp, #96]
    1994:	eb16001f 	cmp	x0, x22
    1998:	54000108 	b.hi	19b8 <__utee_call_elf_init_fn+0xf4>  // b.pmore
/home/nick2/optee-dependencies/Jetson_Linux_R35.4.1_aarch64/Linux_for_Tegra/sources/tegra/optee-src/nv-optee/optee/optee_os/lib/libutee/user_ta_entry.c:119 (discriminator 2)
    199c:	f94026a0 	ldr	x0, [x21, #72]
/home/nick2/optee-dependencies/Jetson_Linux_R35.4.1_aarch64/Linux_for_Tegra/sources/tegra/optee-src/nv-optee/optee/optee_os/lib/libutee/user_ta_entry.c:128 (discriminator 2)
    19a0:	91000694 	add	x20, x20, #0x1
/home/nick2/optee-dependencies/Jetson_Linux_R35.4.1_aarch64/Linux_for_Tegra/sources/tegra/optee-src/nv-optee/optee/optee_os/lib/libutee/user_ta_entry.c:119 (discriminator 2)
    19a4:	f9400400 	ldr	x0, [x0, #8]
    19a8:	f9400015 	ldr	x21, [x0]
/home/nick2/optee-dependencies/Jetson_Linux_R35.4.1_aarch64/Linux_for_Tegra/sources/tegra/optee-src/nv-optee/optee/optee_os/lib/libutee/user_ta_entry.c:126 (discriminator 2)
    19ac:	f9002bff 	str	xzr, [sp, #80]
/home/nick2/optee-dependencies/Jetson_Linux_R35.4.1_aarch64/Linux_for_Tegra/sources/tegra/optee-src/nv-optee/optee/optee_os/lib/libutee/user_ta_entry.c:127 (discriminator 2)
    19b0:	f90033ff 	str	xzr, [sp, #96]
/home/nick2/optee-dependencies/Jetson_Linux_R35.4.1_aarch64/Linux_for_Tegra/sources/tegra/optee-src/nv-optee/optee/optee_os/lib/libutee/user_ta_entry.c:119 (discriminator 2)
    19b4:	17ffffe0 	b	1934 <__utee_call_elf_init_fn+0x70>
/home/nick2/optee-dependencies/Jetson_Linux_R35.4.1_aarch64/Linux_for_Tegra/sources/tegra/optee-src/nv-optee/optee/optee_os/lib/libutee/user_ta_entry.c:125 (discriminator 3)
    19b8:	f9402be0 	ldr	x0, [sp, #80]
    19bc:	f8767800 	ldr	x0, [x0, x22, lsl #3]
/home/nick2/optee-dependencies/Jetson_Linux_R35.4.1_aarch64/Linux_for_Tegra/sources/tegra/optee-src/nv-optee/optee/optee_os/lib/libutee/user_ta_entry.c:124 (discriminator 3)
    19c0:	910006d6 	add	x22, x22, #0x1
/home/nick2/optee-dependencies/Jetson_Linux_R35.4.1_aarch64/Linux_for_Tegra/sources/tegra/optee-src/nv-optee/optee/optee_os/lib/libutee/user_ta_entry.c:125 (discriminator 3)
    19c4:	d63f0000 	blr	x0
/home/nick2/optee-dependencies/Jetson_Linux_R35.4.1_aarch64/Linux_for_Tegra/sources/tegra/optee-src/nv-optee/optee/optee_os/lib/libutee/user_ta_entry.c:124 (discriminator 3)
    19c8:	17fffff2 	b	1990 <__utee_call_elf_init_fn+0xcc>
/home/nick2/optee-dependencies/Jetson_Linux_R35.4.1_aarch64/Linux_for_Tegra/sources/tegra/optee-src/nv-optee/optee/optee_os/lib/libutee/user_ta_entry.c:133 (discriminator 1)
    19cc:	f9002681 	str	x1, [x20, #72]
/home/nick2/optee-dependencies/Jetson_Linux_R35.4.1_aarch64/Linux_for_Tegra/sources/tegra/optee-src/nv-optee/optee/optee_os/lib/libutee/user_ta_entry.c:133 (discriminator 4)
    19d0:	f9402401 	ldr	x1, [x0, #72]
    19d4:	f9000034 	str	x20, [x1]
/home/nick2/optee-dependencies/Jetson_Linux_R35.4.1_aarch64/Linux_for_Tegra/sources/tegra/optee-src/nv-optee/optee/optee_os/lib/libutee/user_ta_entry.c:134 (discriminator 4)
    19d8:	94002a0a 	bl	c200 <free>
/home/nick2/optee-dependencies/Jetson_Linux_R35.4.1_aarch64/Linux_for_Tegra/sources/tegra/optee-src/nv-optee/optee/optee_os/lib/libutee/user_ta_entry.c:132 (discriminator 4)
    19dc:	aa1403e0 	mov	x0, x20
    19e0:	17ffffdc 	b	1950 <__utee_call_elf_init_fn+0x8c>
/home/nick2/optee-dependencies/Jetson_Linux_R35.4.1_aarch64/Linux_for_Tegra/sources/tegra/optee-src/nv-optee/optee/optee_os/lib/libutee/user_ta_entry.c:136
    19e4:	90000080 	adrp	x0, 11000 <_DYNAMIC>
    19e8:	f9409800 	ldr	x0, [x0, #304]
    19ec:	f94037e1 	ldr	x1, [sp, #104]
    19f0:	f9400002 	ldr	x2, [x0]
    19f4:	eb020021 	subs	x1, x1, x2
    19f8:	d2800002 	mov	x2, #0x0                   	// #0
    19fc:	54000040 	b.eq	1a04 <__utee_call_elf_init_fn+0x140>  // b.none
    1a00:	97fffade 	bl	578 <__stack_chk_fail>
    1a04:	a94153f3 	ldp	x19, x20, [sp, #16]
    1a08:	a9425bf5 	ldp	x21, x22, [sp, #32]
    1a0c:	a94363f7 	ldp	x23, x24, [sp, #48]
    1a10:	a9446bf9 	ldp	x25, x26, [sp, #64]
    1a14:	a8c77bfd 	ldp	x29, x30, [sp], #112
    1a18:	d65f03c0 	ret

0000000000001a1c <__utee_call_elf_fini_fn>:
__utee_call_elf_fini_fn():
/home/nick2/optee-dependencies/Jetson_Linux_R35.4.1_aarch64/Linux_for_Tegra/sources/tegra/optee-src/nv-optee/optee/optee_os/lib/libutee/user_ta_entry.c:155
    1a1c:	d2800001 	mov	x1, #0x0                   	// #0
    1a20:	90000000 	adrp	x0, 1000 <kprintf.constprop.0+0x874>
    1a24:	911ac000 	add	x0, x0, #0x6b0
    1a28:	1400143c 	b	6b18 <dl_iterate_phdr>

0000000000001a2c <ta_header_remove_session>:
ta_header_remove_session():
/home/nick2/optee-dependencies/Jetson_Linux_R35.4.1_aarch64/Linux_for_Tegra/sources/tegra/optee-src/nv-optee/optee/optee_os/lib/libutee/user_ta_entry.c:245
    1a2c:	a9be7bfd 	stp	x29, x30, [sp, #-32]!
    1a30:	2a0003e2 	mov	w2, w0
    1a34:	910003fd 	mov	x29, sp
    1a38:	f9000bf3 	str	x19, [sp, #16]
/home/nick2/optee-dependencies/Jetson_Linux_R35.4.1_aarch64/Linux_for_Tegra/sources/tegra/optee-src/nv-optee/optee/optee_os/lib/libutee/user_ta_entry.c:249
    1a3c:	90000093 	adrp	x19, 11000 <_DYNAMIC>
    1a40:	f9428260 	ldr	x0, [x19, #1280]
/home/nick2/optee-dependencies/Jetson_Linux_R35.4.1_aarch64/Linux_for_Tegra/sources/tegra/optee-src/nv-optee/optee/optee_os/lib/libutee/user_ta_entry.c:249 (discriminator 1)
    1a44:	b5000080 	cbnz	x0, 1a54 <ta_header_remove_session+0x28>
/home/nick2/optee-dependencies/Jetson_Linux_R35.4.1_aarch64/Linux_for_Tegra/sources/tegra/optee-src/nv-optee/optee/optee_os/lib/libutee/user_ta_entry.c:263
    1a48:	f9400bf3 	ldr	x19, [sp, #16]
    1a4c:	a8c27bfd 	ldp	x29, x30, [sp], #32
    1a50:	d65f03c0 	ret
/home/nick2/optee-dependencies/Jetson_Linux_R35.4.1_aarch64/Linux_for_Tegra/sources/tegra/optee-src/nv-optee/optee/optee_os/lib/libutee/user_ta_entry.c:250
    1a54:	b9400003 	ldr	w3, [x0]
    1a58:	f9400801 	ldr	x1, [x0, #16]
    1a5c:	6b02007f 	cmp	w3, w2
    1a60:	540002e1 	b.ne	1abc <ta_header_remove_session+0x90>  // b.any
/home/nick2/optee-dependencies/Jetson_Linux_R35.4.1_aarch64/Linux_for_Tegra/sources/tegra/optee-src/nv-optee/optee/optee_os/lib/libutee/user_ta_entry.c:251
    1a64:	f9400c02 	ldr	x2, [x0, #24]
    1a68:	b4000241 	cbz	x1, 1ab0 <ta_header_remove_session+0x84>
/home/nick2/optee-dependencies/Jetson_Linux_R35.4.1_aarch64/Linux_for_Tegra/sources/tegra/optee-src/nv-optee/optee/optee_os/lib/libutee/user_ta_entry.c:251 (discriminator 1)
    1a6c:	f9000c22 	str	x2, [x1, #24]
/home/nick2/optee-dependencies/Jetson_Linux_R35.4.1_aarch64/Linux_for_Tegra/sources/tegra/optee-src/nv-optee/optee/optee_os/lib/libutee/user_ta_entry.c:251 (discriminator 4)
    1a70:	f9400c02 	ldr	x2, [x0, #24]
    1a74:	f9000041 	str	x1, [x2]
/home/nick2/optee-dependencies/Jetson_Linux_R35.4.1_aarch64/Linux_for_Tegra/sources/tegra/optee-src/nv-optee/optee/optee_os/lib/libutee/user_ta_entry.c:252 (discriminator 4)
    1a78:	940005c7 	bl	3194 <TEE_Free>
/home/nick2/optee-dependencies/Jetson_Linux_R35.4.1_aarch64/Linux_for_Tegra/sources/tegra/optee-src/nv-optee/optee/optee_os/lib/libutee/user_ta_entry.c:257 (discriminator 4)
    1a7c:	f9428260 	ldr	x0, [x19, #1280]
    1a80:	b5fffe40 	cbnz	x0, 1a48 <ta_header_remove_session+0x1c>
/home/nick2/optee-dependencies/Jetson_Linux_R35.4.1_aarch64/Linux_for_Tegra/sources/tegra/optee-src/nv-optee/optee/optee_os/lib/libutee/user_ta_entry.c:255 (discriminator 1)
    1a84:	90000080 	adrp	x0, 11000 <_DYNAMIC>
    1a88:	52800281 	mov	w1, #0x14                  	// #20
    1a8c:	f940e800 	ldr	x0, [x0, #464]
    1a90:	b9401400 	ldr	w0, [x0, #20]
    1a94:	0a010000 	and	w0, w0, w1
/home/nick2/optee-dependencies/Jetson_Linux_R35.4.1_aarch64/Linux_for_Tegra/sources/tegra/optee-src/nv-optee/optee/optee_os/lib/libutee/user_ta_entry.c:257 (discriminator 1)
    1a98:	6b01001f 	cmp	w0, w1
    1a9c:	54fffd60 	b.eq	1a48 <ta_header_remove_session+0x1c>  // b.none
uninit_instance():
/home/nick2/optee-dependencies/Jetson_Linux_R35.4.1_aarch64/Linux_for_Tegra/sources/tegra/optee-src/nv-optee/optee/optee_os/lib/libutee/user_ta_entry.c:192
    1aa0:	97fff9a8 	bl	140 <TA_DestroyEntryPoint>
ta_header_remove_session():
/home/nick2/optee-dependencies/Jetson_Linux_R35.4.1_aarch64/Linux_for_Tegra/sources/tegra/optee-src/nv-optee/optee/optee_os/lib/libutee/user_ta_entry.c:263
    1aa4:	f9400bf3 	ldr	x19, [sp, #16]
    1aa8:	a8c27bfd 	ldp	x29, x30, [sp], #32
uninit_instance():
/home/nick2/optee-dependencies/Jetson_Linux_R35.4.1_aarch64/Linux_for_Tegra/sources/tegra/optee-src/nv-optee/optee/optee_os/lib/libutee/user_ta_entry.c:193
    1aac:	17ffffdc 	b	1a1c <__utee_call_elf_fini_fn>
ta_header_remove_session():
/home/nick2/optee-dependencies/Jetson_Linux_R35.4.1_aarch64/Linux_for_Tegra/sources/tegra/optee-src/nv-optee/optee/optee_os/lib/libutee/user_ta_entry.c:251 (discriminator 2)
    1ab0:	91140263 	add	x3, x19, #0x500
    1ab4:	f9000462 	str	x2, [x3, #8]
    1ab8:	17ffffee 	b	1a70 <ta_header_remove_session+0x44>
    1abc:	aa0103e0 	mov	x0, x1
    1ac0:	17ffffe1 	b	1a44 <ta_header_remove_session+0x18>

0000000000001ac4 <__utee_entry>:
__utee_entry():
/home/nick2/optee-dependencies/Jetson_Linux_R35.4.1_aarch64/Linux_for_Tegra/sources/tegra/optee-src/nv-optee/optee/optee_os/lib/libutee/user_ta_entry.c:421
    1ac4:	a9b77bfd 	stp	x29, x30, [sp, #-144]!
/home/nick2/optee-dependencies/Jetson_Linux_R35.4.1_aarch64/Linux_for_Tegra/sources/tegra/optee-src/nv-optee/optee/optee_os/lib/libutee/user_ta_entry.c:424
    1ac8:	f100041f 	cmp	x0, #0x1
/home/nick2/optee-dependencies/Jetson_Linux_R35.4.1_aarch64/Linux_for_Tegra/sources/tegra/optee-src/nv-optee/optee/optee_os/lib/libutee/user_ta_entry.c:421
    1acc:	910003fd 	mov	x29, sp
    1ad0:	a9025bf5 	stp	x21, x22, [sp, #32]
    1ad4:	aa0103f5 	mov	x21, x1
    1ad8:	90000081 	adrp	x1, 11000 <_DYNAMIC>
    1adc:	aa0203f6 	mov	x22, x2
    1ae0:	a90363f7 	stp	x23, x24, [sp, #48]
    1ae4:	aa0303f7 	mov	x23, x3
    1ae8:	f9409822 	ldr	x2, [x1, #304]
    1aec:	a90153f3 	stp	x19, x20, [sp, #16]
    1af0:	aa0103f4 	mov	x20, x1
    1af4:	f9400043 	ldr	x3, [x2]
    1af8:	f90047e3 	str	x3, [sp, #136]
    1afc:	d2800003 	mov	x3, #0x0                   	// #0
/home/nick2/optee-dependencies/Jetson_Linux_R35.4.1_aarch64/Linux_for_Tegra/sources/tegra/optee-src/nv-optee/optee/optee_os/lib/libutee/user_ta_entry.c:424
    1b00:	54000ca0 	b.eq	1c94 <__utee_entry+0x1d0>  // b.none
    1b04:	f100081f 	cmp	x0, #0x2
    1b08:	54000d80 	b.eq	1cb8 <__utee_entry+0x1f4>  // b.none
    1b0c:	b50010c0 	cbnz	x0, 1d24 <__utee_entry+0x260>
ta_header_add_session():
/home/nick2/optee-dependencies/Jetson_Linux_R35.4.1_aarch64/Linux_for_Tegra/sources/tegra/optee-src/nv-optee/optee/optee_os/lib/libutee/user_ta_entry.c:220
    1b10:	2a1503e0 	mov	w0, w21
    1b14:	97ffff0b 	bl	1740 <ta_header_get_session>
/home/nick2/optee-dependencies/Jetson_Linux_R35.4.1_aarch64/Linux_for_Tegra/sources/tegra/optee-src/nv-optee/optee/optee_os/lib/libutee/user_ta_entry.c:223
    1b18:	b5000840 	cbnz	x0, 1c20 <__utee_entry+0x15c>
/home/nick2/optee-dependencies/Jetson_Linux_R35.4.1_aarch64/Linux_for_Tegra/sources/tegra/optee-src/nv-optee/optee/optee_os/lib/libutee/user_ta_entry.c:226
    1b1c:	90000080 	adrp	x0, 11000 <_DYNAMIC>
    1b20:	91170000 	add	x0, x0, #0x5c0
    1b24:	39402001 	ldrb	w1, [x0, #8]
    1b28:	340000e1 	cbz	w1, 1b44 <__utee_entry+0x80>
/home/nick2/optee-dependencies/Jetson_Linux_R35.4.1_aarch64/Linux_for_Tegra/sources/tegra/optee-src/nv-optee/optee/optee_os/lib/libutee/user_ta_entry.c:233
    1b2c:	52b00001 	mov	w1, #0x80000000            	// #-2147483648
    1b30:	d2800400 	mov	x0, #0x20                  	// #32
    1b34:	9400054d 	bl	3068 <TEE_Malloc>
/home/nick2/optee-dependencies/Jetson_Linux_R35.4.1_aarch64/Linux_for_Tegra/sources/tegra/optee-src/nv-optee/optee/optee_os/lib/libutee/user_ta_entry.c:235
    1b38:	b5000620 	cbnz	x0, 1bfc <__utee_entry+0x138>
/home/nick2/optee-dependencies/Jetson_Linux_R35.4.1_aarch64/Linux_for_Tegra/sources/tegra/optee-src/nv-optee/optee/optee_os/lib/libutee/user_ta_entry.c:236
    1b3c:	129ffe73 	mov	w19, #0xffff000c            	// #-65524
    1b40:	14000022 	b	1bc8 <__utee_entry+0x104>
/home/nick2/optee-dependencies/Jetson_Linux_R35.4.1_aarch64/Linux_for_Tegra/sources/tegra/optee-src/nv-optee/optee/optee_os/lib/libutee/user_ta_entry.c:227
    1b44:	52800021 	mov	w1, #0x1                   	// #1
    1b48:	39002001 	strb	w1, [x0, #8]
init_instance():
/home/nick2/optee-dependencies/Jetson_Linux_R35.4.1_aarch64/Linux_for_Tegra/sources/tegra/optee-src/nv-optee/optee/optee_os/lib/libutee/user_ta_entry.c:170
    1b4c:	97fff9b8 	bl	22c <tahead_get_trace_level>
    1b50:	97fff9bf 	bl	24c <trace_set_level>
/home/nick2/optee-dependencies/Jetson_Linux_R35.4.1_aarch64/Linux_for_Tegra/sources/tegra/optee-src/nv-optee/optee/optee_os/lib/libutee/user_ta_entry.c:172
    1b54:	f9409e80 	ldr	x0, [x20, #312]
    1b58:	f9400001 	ldr	x1, [x0]
    1b5c:	f940be80 	ldr	x0, [x20, #376]
    1b60:	94002a63 	bl	c4ec <malloc_add_pool>
/home/nick2/optee-dependencies/Jetson_Linux_R35.4.1_aarch64/Linux_for_Tegra/sources/tegra/optee-src/nv-optee/optee/optee_os/lib/libutee/user_ta_entry.c:173
    1b64:	f940a280 	ldr	x0, [x20, #320]
    1b68:	f9400017 	ldr	x23, [x0]
    1b6c:	b4000177 	cbz	x23, 1b98 <__utee_entry+0xd4>
/home/nick2/optee-dependencies/Jetson_Linux_R35.4.1_aarch64/Linux_for_Tegra/sources/tegra/optee-src/nv-optee/optee/optee_os/lib/libutee/user_ta_entry.c:174
    1b70:	940029ac 	bl	c220 <raw_malloc_get_ctx_size>
    1b74:	94002983 	bl	c180 <malloc>
    1b78:	f940da93 	ldr	x19, [x20, #432]
    1b7c:	f9000260 	str	x0, [x19]
/home/nick2/optee-dependencies/Jetson_Linux_R35.4.1_aarch64/Linux_for_Tegra/sources/tegra/optee-src/nv-optee/optee/optee_os/lib/libutee/user_ta_entry.c:175
    1b80:	b40000c0 	cbz	x0, 1b98 <__utee_entry+0xd4>
/home/nick2/optee-dependencies/Jetson_Linux_R35.4.1_aarch64/Linux_for_Tegra/sources/tegra/optee-src/nv-optee/optee/optee_os/lib/libutee/user_ta_entry.c:176
    1b84:	940029a9 	bl	c228 <raw_malloc_init_ctx>
/home/nick2/optee-dependencies/Jetson_Linux_R35.4.1_aarch64/Linux_for_Tegra/sources/tegra/optee-src/nv-optee/optee/optee_os/lib/libutee/user_ta_entry.c:177
    1b88:	f940de81 	ldr	x1, [x20, #440]
    1b8c:	aa1703e2 	mov	x2, x23
    1b90:	f9400260 	ldr	x0, [x19]
    1b94:	940029b0 	bl	c254 <raw_malloc_add_pool>
get_memtag_implementation():
/home/nick2/optee-dependencies/Jetson_Linux_R35.4.1_aarch64/Linux_for_Tegra/sources/tegra/optee-src/nv-optee/optee/optee_os/lib/libutee/user_ta_entry.c:163
    1b98:	910113e2 	add	x2, sp, #0x44
    1b9c:	d0000061 	adrp	x1, f000 <__text_end+0x26bc>
    1ba0:	91253421 	add	x1, x1, #0x94d
    1ba4:	12800040 	mov	w0, #0xfffffffd            	// #-3
/home/nick2/optee-dependencies/Jetson_Linux_R35.4.1_aarch64/Linux_for_Tegra/sources/tegra/optee-src/nv-optee/optee/optee_os/lib/libutee/user_ta_entry.c:161
    1ba8:	b90047ff 	str	wzr, [sp, #68]
/home/nick2/optee-dependencies/Jetson_Linux_R35.4.1_aarch64/Linux_for_Tegra/sources/tegra/optee-src/nv-optee/optee/optee_os/lib/libutee/user_ta_entry.c:163
    1bac:	94001079 	bl	5d90 <TEE_GetPropertyAsU32>
init_instance():
/home/nick2/optee-dependencies/Jetson_Linux_R35.4.1_aarch64/Linux_for_Tegra/sources/tegra/optee-src/nv-optee/optee/optee_os/lib/libutee/user_ta_entry.c:183
    1bb0:	940007e8 	bl	3b50 <_TEE_MathAPI_Init>
/home/nick2/optee-dependencies/Jetson_Linux_R35.4.1_aarch64/Linux_for_Tegra/sources/tegra/optee-src/nv-optee/optee/optee_os/lib/libutee/user_ta_entry.c:184
    1bb4:	94001342 	bl	68bc <__utee_tcb_init>
/home/nick2/optee-dependencies/Jetson_Linux_R35.4.1_aarch64/Linux_for_Tegra/sources/tegra/optee-src/nv-optee/optee/optee_os/lib/libutee/user_ta_entry.c:185
    1bb8:	97ffff43 	bl	18c4 <__utee_call_elf_init_fn>
/home/nick2/optee-dependencies/Jetson_Linux_R35.4.1_aarch64/Linux_for_Tegra/sources/tegra/optee-src/nv-optee/optee/optee_os/lib/libutee/user_ta_entry.c:186
    1bbc:	97fff954 	bl	10c <TA_CreateEntryPoint>
    1bc0:	2a0003f3 	mov	w19, w0
ta_header_add_session():
/home/nick2/optee-dependencies/Jetson_Linux_R35.4.1_aarch64/Linux_for_Tegra/sources/tegra/optee-src/nv-optee/optee/optee_os/lib/libutee/user_ta_entry.c:229
    1bc4:	34fffb40 	cbz	w0, 1b2c <__utee_entry+0x68>
ta_header_save_params():
/home/nick2/optee-dependencies/Jetson_Linux_R35.4.1_aarch64/Linux_for_Tegra/sources/tegra/optee-src/nv-optee/optee/optee_os/lib/libutee/user_ta_entry.c:199
    1bc8:	f940d280 	ldr	x0, [x20, #416]
/home/nick2/optee-dependencies/Jetson_Linux_R35.4.1_aarch64/Linux_for_Tegra/sources/tegra/optee-src/nv-optee/optee/optee_os/lib/libutee/user_ta_entry.c:204
    1bcc:	52800001 	mov	w1, #0x0                   	// #0
    1bd0:	d2800802 	mov	x2, #0x40                  	// #64
/home/nick2/optee-dependencies/Jetson_Linux_R35.4.1_aarch64/Linux_for_Tegra/sources/tegra/optee-src/nv-optee/optee/optee_os/lib/libutee/user_ta_entry.c:199
    1bd4:	b900001f 	str	wzr, [x0]
/home/nick2/optee-dependencies/Jetson_Linux_R35.4.1_aarch64/Linux_for_Tegra/sources/tegra/optee-src/nv-optee/optee/optee_os/lib/libutee/user_ta_entry.c:204
    1bd8:	f940e280 	ldr	x0, [x20, #448]
    1bdc:	94002ab4 	bl	c6ac <memset>
__utee_entry():
/home/nick2/optee-dependencies/Jetson_Linux_R35.4.1_aarch64/Linux_for_Tegra/sources/tegra/optee-src/nv-optee/optee/optee_os/lib/libutee/user_ta_entry.c:446
    1be0:	f9409a94 	ldr	x20, [x20, #304]
    1be4:	f94047e0 	ldr	x0, [sp, #136]
    1be8:	f9400281 	ldr	x1, [x20]
    1bec:	eb010000 	subs	x0, x0, x1
    1bf0:	d2800001 	mov	x1, #0x0                   	// #0
    1bf4:	54000a00 	b.eq	1d34 <__utee_entry+0x270>  // b.none
    1bf8:	97fffa60 	bl	578 <__stack_chk_fail>
ta_header_add_session():
/home/nick2/optee-dependencies/Jetson_Linux_R35.4.1_aarch64/Linux_for_Tegra/sources/tegra/optee-src/nv-optee/optee/optee_os/lib/libutee/user_ta_entry.c:239
    1bfc:	90000081 	adrp	x1, 11000 <_DYNAMIC>
    1c00:	91140021 	add	x1, x1, #0x500
    1c04:	f9400422 	ldr	x2, [x1, #8]
/home/nick2/optee-dependencies/Jetson_Linux_R35.4.1_aarch64/Linux_for_Tegra/sources/tegra/optee-src/nv-optee/optee/optee_os/lib/libutee/user_ta_entry.c:237
    1c08:	b9000015 	str	w21, [x0]
/home/nick2/optee-dependencies/Jetson_Linux_R35.4.1_aarch64/Linux_for_Tegra/sources/tegra/optee-src/nv-optee/optee/optee_os/lib/libutee/user_ta_entry.c:239
    1c0c:	a900fc1f 	stp	xzr, xzr, [x0, #8]
    1c10:	f9000c02 	str	x2, [x0, #24]
    1c14:	f9000040 	str	x0, [x2]
    1c18:	91004000 	add	x0, x0, #0x10
    1c1c:	f9000420 	str	x0, [x1, #8]
entry_open_session():
/home/nick2/optee-dependencies/Jetson_Linux_R35.4.1_aarch64/Linux_for_Tegra/sources/tegra/optee-src/nv-optee/optee/optee_os/lib/libutee/user_ta_entry.c:338
    1c20:	2a1503e0 	mov	w0, w21
    1c24:	97fffec7 	bl	1740 <ta_header_get_session>
    1c28:	aa0003f3 	mov	x19, x0
/home/nick2/optee-dependencies/Jetson_Linux_R35.4.1_aarch64/Linux_for_Tegra/sources/tegra/optee-src/nv-optee/optee/optee_os/lib/libutee/user_ta_entry.c:339
    1c2c:	b4000800 	cbz	x0, 1d2c <__utee_entry+0x268>
/home/nick2/optee-dependencies/Jetson_Linux_R35.4.1_aarch64/Linux_for_Tegra/sources/tegra/optee-src/nv-optee/optee/optee_os/lib/libutee/user_ta_entry.c:342
    1c30:	910123f7 	add	x23, sp, #0x48
    1c34:	aa1603e2 	mov	x2, x22
    1c38:	910113e1 	add	x1, sp, #0x44
    1c3c:	aa1703e0 	mov	x0, x23
    1c40:	97fffee5 	bl	17d4 <from_utee_params>
/home/nick2/optee-dependencies/Jetson_Linux_R35.4.1_aarch64/Linux_for_Tegra/sources/tegra/optee-src/nv-optee/optee/optee_os/lib/libutee/user_ta_entry.c:343
    1c44:	b94047f8 	ldr	w24, [sp, #68]
ta_header_save_params():
/home/nick2/optee-dependencies/Jetson_Linux_R35.4.1_aarch64/Linux_for_Tegra/sources/tegra/optee-src/nv-optee/optee/optee_os/lib/libutee/user_ta_entry.c:199
    1c48:	f940d280 	ldr	x0, [x20, #416]
/home/nick2/optee-dependencies/Jetson_Linux_R35.4.1_aarch64/Linux_for_Tegra/sources/tegra/optee-src/nv-optee/optee/optee_os/lib/libutee/user_ta_entry.c:202
    1c4c:	aa1703e1 	mov	x1, x23
    1c50:	d2800802 	mov	x2, #0x40                  	// #64
/home/nick2/optee-dependencies/Jetson_Linux_R35.4.1_aarch64/Linux_for_Tegra/sources/tegra/optee-src/nv-optee/optee/optee_os/lib/libutee/user_ta_entry.c:199
    1c54:	b9000018 	str	w24, [x0]
/home/nick2/optee-dependencies/Jetson_Linux_R35.4.1_aarch64/Linux_for_Tegra/sources/tegra/optee-src/nv-optee/optee/optee_os/lib/libutee/user_ta_entry.c:202
    1c58:	f940e280 	ldr	x0, [x20, #448]
    1c5c:	97fff8f1 	bl	20 <memcpy>
entry_open_session():
/home/nick2/optee-dependencies/Jetson_Linux_R35.4.1_aarch64/Linux_for_Tegra/sources/tegra/optee-src/nv-optee/optee/optee_os/lib/libutee/user_ta_entry.c:345
    1c60:	91002262 	add	x2, x19, #0x8
    1c64:	aa1703e1 	mov	x1, x23
    1c68:	2a1803e0 	mov	w0, w24
    1c6c:	97fff972 	bl	234 <TA_OpenSessionEntryPoint>
/home/nick2/optee-dependencies/Jetson_Linux_R35.4.1_aarch64/Linux_for_Tegra/sources/tegra/optee-src/nv-optee/optee/optee_os/lib/libutee/user_ta_entry.c:348
    1c70:	b94047e1 	ldr	w1, [sp, #68]
/home/nick2/optee-dependencies/Jetson_Linux_R35.4.1_aarch64/Linux_for_Tegra/sources/tegra/optee-src/nv-optee/optee/optee_os/lib/libutee/user_ta_entry.c:345
    1c74:	2a0003f3 	mov	w19, w0
/home/nick2/optee-dependencies/Jetson_Linux_R35.4.1_aarch64/Linux_for_Tegra/sources/tegra/optee-src/nv-optee/optee/optee_os/lib/libutee/user_ta_entry.c:348
    1c78:	aa1703e2 	mov	x2, x23
    1c7c:	aa1603e0 	mov	x0, x22
    1c80:	97fffeba 	bl	1768 <to_utee_params>
/home/nick2/optee-dependencies/Jetson_Linux_R35.4.1_aarch64/Linux_for_Tegra/sources/tegra/optee-src/nv-optee/optee/optee_os/lib/libutee/user_ta_entry.c:350
    1c84:	34fffa33 	cbz	w19, 1bc8 <__utee_entry+0x104>
/home/nick2/optee-dependencies/Jetson_Linux_R35.4.1_aarch64/Linux_for_Tegra/sources/tegra/optee-src/nv-optee/optee/optee_os/lib/libutee/user_ta_entry.c:351
    1c88:	2a1503e0 	mov	w0, w21
    1c8c:	97ffff68 	bl	1a2c <ta_header_remove_session>
    1c90:	17ffffce 	b	1bc8 <__utee_entry+0x104>
entry_close_session():
/home/nick2/optee-dependencies/Jetson_Linux_R35.4.1_aarch64/Linux_for_Tegra/sources/tegra/optee-src/nv-optee/optee/optee_os/lib/libutee/user_ta_entry.c:357
    1c94:	2a1503e0 	mov	w0, w21
    1c98:	97fffeaa 	bl	1740 <ta_header_get_session>
/home/nick2/optee-dependencies/Jetson_Linux_R35.4.1_aarch64/Linux_for_Tegra/sources/tegra/optee-src/nv-optee/optee/optee_os/lib/libutee/user_ta_entry.c:359
    1c9c:	b4000480 	cbz	x0, 1d2c <__utee_entry+0x268>
/home/nick2/optee-dependencies/Jetson_Linux_R35.4.1_aarch64/Linux_for_Tegra/sources/tegra/optee-src/nv-optee/optee/optee_os/lib/libutee/user_ta_entry.c:362
    1ca0:	f9400400 	ldr	x0, [x0, #8]
/home/nick2/optee-dependencies/Jetson_Linux_R35.4.1_aarch64/Linux_for_Tegra/sources/tegra/optee-src/nv-optee/optee/optee_os/lib/libutee/user_ta_entry.c:365
    1ca4:	52800013 	mov	w19, #0x0                   	// #0
/home/nick2/optee-dependencies/Jetson_Linux_R35.4.1_aarch64/Linux_for_Tegra/sources/tegra/optee-src/nv-optee/optee/optee_os/lib/libutee/user_ta_entry.c:362
    1ca8:	97fff94b 	bl	1d4 <TA_CloseSessionEntryPoint>
/home/nick2/optee-dependencies/Jetson_Linux_R35.4.1_aarch64/Linux_for_Tegra/sources/tegra/optee-src/nv-optee/optee/optee_os/lib/libutee/user_ta_entry.c:364
    1cac:	2a1503e0 	mov	w0, w21
    1cb0:	97ffff5f 	bl	1a2c <ta_header_remove_session>
/home/nick2/optee-dependencies/Jetson_Linux_R35.4.1_aarch64/Linux_for_Tegra/sources/tegra/optee-src/nv-optee/optee/optee_os/lib/libutee/user_ta_entry.c:365
    1cb4:	17ffffc5 	b	1bc8 <__utee_entry+0x104>
entry_invoke_command():
/home/nick2/optee-dependencies/Jetson_Linux_R35.4.1_aarch64/Linux_for_Tegra/sources/tegra/optee-src/nv-optee/optee/optee_os/lib/libutee/user_ta_entry.c:374
    1cb8:	2a1503e0 	mov	w0, w21
    1cbc:	97fffea1 	bl	1740 <ta_header_get_session>
    1cc0:	aa0003f3 	mov	x19, x0
/home/nick2/optee-dependencies/Jetson_Linux_R35.4.1_aarch64/Linux_for_Tegra/sources/tegra/optee-src/nv-optee/optee/optee_os/lib/libutee/user_ta_entry.c:376
    1cc4:	b4000340 	cbz	x0, 1d2c <__utee_entry+0x268>
/home/nick2/optee-dependencies/Jetson_Linux_R35.4.1_aarch64/Linux_for_Tegra/sources/tegra/optee-src/nv-optee/optee/optee_os/lib/libutee/user_ta_entry.c:379
    1cc8:	910123f5 	add	x21, sp, #0x48
    1ccc:	aa1603e2 	mov	x2, x22
    1cd0:	910113e1 	add	x1, sp, #0x44
    1cd4:	aa1503e0 	mov	x0, x21
    1cd8:	97fffebf 	bl	17d4 <from_utee_params>
/home/nick2/optee-dependencies/Jetson_Linux_R35.4.1_aarch64/Linux_for_Tegra/sources/tegra/optee-src/nv-optee/optee/optee_os/lib/libutee/user_ta_entry.c:380
    1cdc:	b94047f8 	ldr	w24, [sp, #68]
ta_header_save_params():
/home/nick2/optee-dependencies/Jetson_Linux_R35.4.1_aarch64/Linux_for_Tegra/sources/tegra/optee-src/nv-optee/optee/optee_os/lib/libutee/user_ta_entry.c:199
    1ce0:	f940d280 	ldr	x0, [x20, #416]
/home/nick2/optee-dependencies/Jetson_Linux_R35.4.1_aarch64/Linux_for_Tegra/sources/tegra/optee-src/nv-optee/optee/optee_os/lib/libutee/user_ta_entry.c:202
    1ce4:	aa1503e1 	mov	x1, x21
    1ce8:	d2800802 	mov	x2, #0x40                  	// #64
/home/nick2/optee-dependencies/Jetson_Linux_R35.4.1_aarch64/Linux_for_Tegra/sources/tegra/optee-src/nv-optee/optee/optee_os/lib/libutee/user_ta_entry.c:199
    1cec:	b9000018 	str	w24, [x0]
/home/nick2/optee-dependencies/Jetson_Linux_R35.4.1_aarch64/Linux_for_Tegra/sources/tegra/optee-src/nv-optee/optee/optee_os/lib/libutee/user_ta_entry.c:202
    1cf0:	f940e280 	ldr	x0, [x20, #448]
    1cf4:	97fff8cb 	bl	20 <memcpy>
entry_invoke_command():
/home/nick2/optee-dependencies/Jetson_Linux_R35.4.1_aarch64/Linux_for_Tegra/sources/tegra/optee-src/nv-optee/optee/optee_os/lib/libutee/user_ta_entry.c:382
    1cf8:	f9400660 	ldr	x0, [x19, #8]
    1cfc:	2a1803e2 	mov	w2, w24
    1d00:	2a1703e1 	mov	w1, w23
    1d04:	aa1503e3 	mov	x3, x21
    1d08:	97fff94e 	bl	240 <TA_InvokeCommandEntryPoint>
    1d0c:	2a0003f3 	mov	w19, w0
/home/nick2/optee-dependencies/Jetson_Linux_R35.4.1_aarch64/Linux_for_Tegra/sources/tegra/optee-src/nv-optee/optee/optee_os/lib/libutee/user_ta_entry.c:385
    1d10:	b94047e1 	ldr	w1, [sp, #68]
    1d14:	aa1503e2 	mov	x2, x21
    1d18:	aa1603e0 	mov	x0, x22
    1d1c:	97fffe93 	bl	1768 <to_utee_params>
/home/nick2/optee-dependencies/Jetson_Linux_R35.4.1_aarch64/Linux_for_Tegra/sources/tegra/optee-src/nv-optee/optee/optee_os/lib/libutee/user_ta_entry.c:386
    1d20:	17ffffaa 	b	1bc8 <__utee_entry+0x104>
__utee_entry():
/home/nick2/optee-dependencies/Jetson_Linux_R35.4.1_aarch64/Linux_for_Tegra/sources/tegra/optee-src/nv-optee/optee/optee_os/lib/libutee/user_ta_entry.c:424
    1d24:	129ffeb3 	mov	w19, #0xffff000a            	// #-65526
    1d28:	17ffffa8 	b	1bc8 <__utee_entry+0x104>
entry_close_session():
/home/nick2/optee-dependencies/Jetson_Linux_R35.4.1_aarch64/Linux_for_Tegra/sources/tegra/optee-src/nv-optee/optee/optee_os/lib/libutee/user_ta_entry.c:360
    1d2c:	129fff13 	mov	w19, #0xffff0007            	// #-65529
    1d30:	17ffffa6 	b	1bc8 <__utee_entry+0x104>
__utee_entry():
/home/nick2/optee-dependencies/Jetson_Linux_R35.4.1_aarch64/Linux_for_Tegra/sources/tegra/optee-src/nv-optee/optee/optee_os/lib/libutee/user_ta_entry.c:446
    1d34:	2a1303e0 	mov	w0, w19
    1d38:	a94153f3 	ldp	x19, x20, [sp, #16]
    1d3c:	a9425bf5 	ldp	x21, x22, [sp, #32]
    1d40:	a94363f7 	ldp	x23, x24, [sp, #48]
    1d44:	a8c97bfd 	ldp	x29, x30, [sp], #144
    1d48:	d65f03c0 	ret

0000000000001d4c <to_gp11_param>:
to_gp11_param():
/home/nick2/optee-dependencies/Jetson_Linux_R35.4.1_aarch64/Linux_for_Tegra/sources/tegra/optee-src/nv-optee/optee/optee_os/lib/libutee/user_ta_entry_compat.c:11
    1d4c:	52800003 	mov	w3, #0x0                   	// #0
/home/nick2/optee-dependencies/Jetson_Linux_R35.4.1_aarch64/Linux_for_Tegra/sources/tegra/optee-src/nv-optee/optee/optee_os/lib/libutee/user_ta_entry_compat.c:15
    1d50:	1ac32405 	lsr	w5, w0, w3
    1d54:	12000ca4 	and	w4, w5, #0xf
    1d58:	721e04bf 	tst	w5, #0xc
    1d5c:	540000e1 	b.ne	1d78 <to_gp11_param+0x2c>  // b.any
    1d60:	34000124 	cbz	w4, 1d84 <to_gp11_param+0x38>
/home/nick2/optee-dependencies/Jetson_Linux_R35.4.1_aarch64/Linux_for_Tegra/sources/tegra/optee-src/nv-optee/optee/optee_os/lib/libutee/user_ta_entry_compat.c:19
    1d64:	b9400024 	ldr	w4, [x1]
    1d68:	b9000044 	str	w4, [x2]
/home/nick2/optee-dependencies/Jetson_Linux_R35.4.1_aarch64/Linux_for_Tegra/sources/tegra/optee-src/nv-optee/optee/optee_os/lib/libutee/user_ta_entry_compat.c:20
    1d6c:	b9400424 	ldr	w4, [x1, #4]
    1d70:	b9000444 	str	w4, [x2, #4]
/home/nick2/optee-dependencies/Jetson_Linux_R35.4.1_aarch64/Linux_for_Tegra/sources/tegra/optee-src/nv-optee/optee/optee_os/lib/libutee/user_ta_entry_compat.c:21
    1d74:	14000004 	b	1d84 <to_gp11_param+0x38>
/home/nick2/optee-dependencies/Jetson_Linux_R35.4.1_aarch64/Linux_for_Tegra/sources/tegra/optee-src/nv-optee/optee/optee_os/lib/libutee/user_ta_entry_compat.c:15
    1d78:	51001484 	sub	w4, w4, #0x5
    1d7c:	7100089f 	cmp	w4, #0x2
    1d80:	540000e9 	b.ls	1d9c <to_gp11_param+0x50>  // b.plast
/home/nick2/optee-dependencies/Jetson_Linux_R35.4.1_aarch64/Linux_for_Tegra/sources/tegra/optee-src/nv-optee/optee/optee_os/lib/libutee/user_ta_entry_compat.c:14 (discriminator 2)
    1d84:	11001063 	add	w3, w3, #0x4
    1d88:	91004021 	add	x1, x1, #0x10
    1d8c:	91004042 	add	x2, x2, #0x10
    1d90:	7100407f 	cmp	w3, #0x10
    1d94:	54fffde1 	b.ne	1d50 <to_gp11_param+0x4>  // b.any
/home/nick2/optee-dependencies/Jetson_Linux_R35.4.1_aarch64/Linux_for_Tegra/sources/tegra/optee-src/nv-optee/optee/optee_os/lib/libutee/user_ta_entry_compat.c:32
    1d98:	d65f03c0 	ret
/home/nick2/optee-dependencies/Jetson_Linux_R35.4.1_aarch64/Linux_for_Tegra/sources/tegra/optee-src/nv-optee/optee/optee_os/lib/libutee/user_ta_entry_compat.c:25
    1d9c:	f9400024 	ldr	x4, [x1]
    1da0:	f9000044 	str	x4, [x2]
/home/nick2/optee-dependencies/Jetson_Linux_R35.4.1_aarch64/Linux_for_Tegra/sources/tegra/optee-src/nv-optee/optee/optee_os/lib/libutee/user_ta_entry_compat.c:26
    1da4:	f9400424 	ldr	x4, [x1, #8]
    1da8:	b9000844 	str	w4, [x2, #8]
/home/nick2/optee-dependencies/Jetson_Linux_R35.4.1_aarch64/Linux_for_Tegra/sources/tegra/optee-src/nv-optee/optee/optee_os/lib/libutee/user_ta_entry_compat.c:27
    1dac:	17fffff6 	b	1d84 <to_gp11_param+0x38>

0000000000001db0 <from_gp11_param>:
from_gp11_param():
/home/nick2/optee-dependencies/Jetson_Linux_R35.4.1_aarch64/Linux_for_Tegra/sources/tegra/optee-src/nv-optee/optee/optee_os/lib/libutee/user_ta_entry_compat.c:37
    1db0:	52800003 	mov	w3, #0x0                   	// #0
/home/nick2/optee-dependencies/Jetson_Linux_R35.4.1_aarch64/Linux_for_Tegra/sources/tegra/optee-src/nv-optee/optee/optee_os/lib/libutee/user_ta_entry_compat.c:41
    1db4:	1ac32405 	lsr	w5, w0, w3
    1db8:	12000ca4 	and	w4, w5, #0xf
    1dbc:	721e04bf 	tst	w5, #0xc
    1dc0:	540000e1 	b.ne	1ddc <from_gp11_param+0x2c>  // b.any
    1dc4:	34000124 	cbz	w4, 1de8 <from_gp11_param+0x38>
/home/nick2/optee-dependencies/Jetson_Linux_R35.4.1_aarch64/Linux_for_Tegra/sources/tegra/optee-src/nv-optee/optee/optee_os/lib/libutee/user_ta_entry_compat.c:45
    1dc8:	b9400024 	ldr	w4, [x1]
    1dcc:	b9000044 	str	w4, [x2]
/home/nick2/optee-dependencies/Jetson_Linux_R35.4.1_aarch64/Linux_for_Tegra/sources/tegra/optee-src/nv-optee/optee/optee_os/lib/libutee/user_ta_entry_compat.c:46
    1dd0:	b9400424 	ldr	w4, [x1, #4]
    1dd4:	b9000444 	str	w4, [x2, #4]
/home/nick2/optee-dependencies/Jetson_Linux_R35.4.1_aarch64/Linux_for_Tegra/sources/tegra/optee-src/nv-optee/optee/optee_os/lib/libutee/user_ta_entry_compat.c:47
    1dd8:	14000004 	b	1de8 <from_gp11_param+0x38>
/home/nick2/optee-dependencies/Jetson_Linux_R35.4.1_aarch64/Linux_for_Tegra/sources/tegra/optee-src/nv-optee/optee/optee_os/lib/libutee/user_ta_entry_compat.c:41
    1ddc:	51001484 	sub	w4, w4, #0x5
    1de0:	7100089f 	cmp	w4, #0x2
    1de4:	540000e9 	b.ls	1e00 <from_gp11_param+0x50>  // b.plast
/home/nick2/optee-dependencies/Jetson_Linux_R35.4.1_aarch64/Linux_for_Tegra/sources/tegra/optee-src/nv-optee/optee/optee_os/lib/libutee/user_ta_entry_compat.c:40 (discriminator 2)
    1de8:	11001063 	add	w3, w3, #0x4
    1dec:	91004021 	add	x1, x1, #0x10
    1df0:	91004042 	add	x2, x2, #0x10
    1df4:	7100407f 	cmp	w3, #0x10
    1df8:	54fffde1 	b.ne	1db4 <from_gp11_param+0x4>  // b.any
/home/nick2/optee-dependencies/Jetson_Linux_R35.4.1_aarch64/Linux_for_Tegra/sources/tegra/optee-src/nv-optee/optee/optee_os/lib/libutee/user_ta_entry_compat.c:58
    1dfc:	d65f03c0 	ret
/home/nick2/optee-dependencies/Jetson_Linux_R35.4.1_aarch64/Linux_for_Tegra/sources/tegra/optee-src/nv-optee/optee/optee_os/lib/libutee/user_ta_entry_compat.c:51
    1e00:	f9400024 	ldr	x4, [x1]
    1e04:	f9000044 	str	x4, [x2]
/home/nick2/optee-dependencies/Jetson_Linux_R35.4.1_aarch64/Linux_for_Tegra/sources/tegra/optee-src/nv-optee/optee/optee_os/lib/libutee/user_ta_entry_compat.c:52
    1e08:	b9400824 	ldr	w4, [x1, #8]
    1e0c:	f9000444 	str	x4, [x2, #8]
/home/nick2/optee-dependencies/Jetson_Linux_R35.4.1_aarch64/Linux_for_Tegra/sources/tegra/optee-src/nv-optee/optee/optee_os/lib/libutee/user_ta_entry_compat.c:53
    1e10:	17fffff6 	b	1de8 <from_gp11_param+0x38>

0000000000001e14 <__ta_open_sess>:
__ta_open_sess():
/home/nick2/optee-dependencies/Jetson_Linux_R35.4.1_aarch64/Linux_for_Tegra/sources/tegra/optee-src/nv-optee/optee/optee_os/lib/libutee/user_ta_entry_compat.c:70
    1e14:	a9b77bfd 	stp	x29, x30, [sp, #-144]!
    1e18:	910003fd 	mov	x29, sp
    1e1c:	a9025bf5 	stp	x21, x22, [sp, #32]
    1e20:	90000095 	adrp	x21, 11000 <_DYNAMIC>
    1e24:	aa0103f6 	mov	x22, x1
    1e28:	f9409ab5 	ldr	x21, [x21, #304]
    1e2c:	a90153f3 	stp	x19, x20, [sp, #16]
/home/nick2/optee-dependencies/Jetson_Linux_R35.4.1_aarch64/Linux_for_Tegra/sources/tegra/optee-src/nv-optee/optee/optee_os/lib/libutee/user_ta_entry_compat.c:71
    1e30:	910123f3 	add	x19, sp, #0x48
/home/nick2/optee-dependencies/Jetson_Linux_R35.4.1_aarch64/Linux_for_Tegra/sources/tegra/optee-src/nv-optee/optee/optee_os/lib/libutee/user_ta_entry_compat.c:70
    1e34:	2a0003f4 	mov	w20, w0
    1e38:	f94002a0 	ldr	x0, [x21]
    1e3c:	f90047e0 	str	x0, [sp, #136]
    1e40:	d2800000 	mov	x0, #0x0                   	// #0
/home/nick2/optee-dependencies/Jetson_Linux_R35.4.1_aarch64/Linux_for_Tegra/sources/tegra/optee-src/nv-optee/optee/optee_os/lib/libutee/user_ta_entry_compat.c:71
    1e44:	52800001 	mov	w1, #0x0                   	// #0
    1e48:	aa1303e0 	mov	x0, x19
/home/nick2/optee-dependencies/Jetson_Linux_R35.4.1_aarch64/Linux_for_Tegra/sources/tegra/optee-src/nv-optee/optee/optee_os/lib/libutee/user_ta_entry_compat.c:70
    1e4c:	a90363f7 	stp	x23, x24, [sp, #48]
    1e50:	aa0303f7 	mov	x23, x3
    1e54:	aa0203f8 	mov	x24, x2
/home/nick2/optee-dependencies/Jetson_Linux_R35.4.1_aarch64/Linux_for_Tegra/sources/tegra/optee-src/nv-optee/optee/optee_os/lib/libutee/user_ta_entry_compat.c:71
    1e58:	d2800802 	mov	x2, #0x40                  	// #64
    1e5c:	94002a14 	bl	c6ac <memset>
/home/nick2/optee-dependencies/Jetson_Linux_R35.4.1_aarch64/Linux_for_Tegra/sources/tegra/optee-src/nv-optee/optee/optee_os/lib/libutee/user_ta_entry_compat.c:74
    1e60:	aa1303e2 	mov	x2, x19
    1e64:	aa1603e1 	mov	x1, x22
    1e68:	2a1403e0 	mov	w0, w20
    1e6c:	97ffffb8 	bl	1d4c <to_gp11_param>
/home/nick2/optee-dependencies/Jetson_Linux_R35.4.1_aarch64/Linux_for_Tegra/sources/tegra/optee-src/nv-optee/optee/optee_os/lib/libutee/user_ta_entry_compat.c:75
    1e70:	aa1803e2 	mov	x2, x24
    1e74:	aa1303e1 	mov	x1, x19
    1e78:	d63f02e0 	blr	x23
    1e7c:	2a0003e6 	mov	w6, w0
/home/nick2/optee-dependencies/Jetson_Linux_R35.4.1_aarch64/Linux_for_Tegra/sources/tegra/optee-src/nv-optee/optee/optee_os/lib/libutee/user_ta_entry_compat.c:76
    1e80:	aa1303e1 	mov	x1, x19
    1e84:	2a1403e0 	mov	w0, w20
    1e88:	aa1603e2 	mov	x2, x22
    1e8c:	97ffffc9 	bl	1db0 <from_gp11_param>
/home/nick2/optee-dependencies/Jetson_Linux_R35.4.1_aarch64/Linux_for_Tegra/sources/tegra/optee-src/nv-optee/optee/optee_os/lib/libutee/user_ta_entry_compat.c:79
    1e90:	f94047e0 	ldr	x0, [sp, #136]
    1e94:	f94002a1 	ldr	x1, [x21]
    1e98:	eb010000 	subs	x0, x0, x1
    1e9c:	d2800001 	mov	x1, #0x0                   	// #0
    1ea0:	54000040 	b.eq	1ea8 <__ta_open_sess+0x94>  // b.none
    1ea4:	97fff9b5 	bl	578 <__stack_chk_fail>
    1ea8:	2a0603e0 	mov	w0, w6
    1eac:	a94153f3 	ldp	x19, x20, [sp, #16]
    1eb0:	a9425bf5 	ldp	x21, x22, [sp, #32]
    1eb4:	a94363f7 	ldp	x23, x24, [sp, #48]
    1eb8:	a8c97bfd 	ldp	x29, x30, [sp], #144
    1ebc:	d65f03c0 	ret

0000000000001ec0 <__ta_invoke_cmd>:
__ta_invoke_cmd():
/home/nick2/optee-dependencies/Jetson_Linux_R35.4.1_aarch64/Linux_for_Tegra/sources/tegra/optee-src/nv-optee/optee/optee_os/lib/libutee/user_ta_entry_compat.c:90
    1ec0:	a9b67bfd 	stp	x29, x30, [sp, #-160]!
    1ec4:	910003fd 	mov	x29, sp
    1ec8:	a9025bf5 	stp	x21, x22, [sp, #32]
    1ecc:	90000095 	adrp	x21, 11000 <_DYNAMIC>
    1ed0:	aa0303f6 	mov	x22, x3
    1ed4:	f9409ab5 	ldr	x21, [x21, #304]
    1ed8:	a90153f3 	stp	x19, x20, [sp, #16]
/home/nick2/optee-dependencies/Jetson_Linux_R35.4.1_aarch64/Linux_for_Tegra/sources/tegra/optee-src/nv-optee/optee/optee_os/lib/libutee/user_ta_entry_compat.c:91
    1edc:	910163f3 	add	x19, sp, #0x58
/home/nick2/optee-dependencies/Jetson_Linux_R35.4.1_aarch64/Linux_for_Tegra/sources/tegra/optee-src/nv-optee/optee/optee_os/lib/libutee/user_ta_entry_compat.c:90
    1ee0:	a90363f7 	stp	x23, x24, [sp, #48]
    1ee4:	aa0003f8 	mov	x24, x0
    1ee8:	f94002a0 	ldr	x0, [x21]
    1eec:	f9004fe0 	str	x0, [sp, #152]
    1ef0:	d2800000 	mov	x0, #0x0                   	// #0
    1ef4:	2a0203f4 	mov	w20, w2
    1ef8:	aa0403f7 	mov	x23, x4
/home/nick2/optee-dependencies/Jetson_Linux_R35.4.1_aarch64/Linux_for_Tegra/sources/tegra/optee-src/nv-optee/optee/optee_os/lib/libutee/user_ta_entry_compat.c:91
    1efc:	d2800802 	mov	x2, #0x40                  	// #64
    1f00:	aa1303e0 	mov	x0, x19
/home/nick2/optee-dependencies/Jetson_Linux_R35.4.1_aarch64/Linux_for_Tegra/sources/tegra/optee-src/nv-optee/optee/optee_os/lib/libutee/user_ta_entry_compat.c:90
    1f04:	f90023f9 	str	x25, [sp, #64]
    1f08:	2a0103f9 	mov	w25, w1
/home/nick2/optee-dependencies/Jetson_Linux_R35.4.1_aarch64/Linux_for_Tegra/sources/tegra/optee-src/nv-optee/optee/optee_os/lib/libutee/user_ta_entry_compat.c:91
    1f0c:	52800001 	mov	w1, #0x0                   	// #0
    1f10:	940029e7 	bl	c6ac <memset>
/home/nick2/optee-dependencies/Jetson_Linux_R35.4.1_aarch64/Linux_for_Tegra/sources/tegra/optee-src/nv-optee/optee/optee_os/lib/libutee/user_ta_entry_compat.c:94
    1f14:	aa1303e2 	mov	x2, x19
    1f18:	aa1603e1 	mov	x1, x22
    1f1c:	2a1403e0 	mov	w0, w20
    1f20:	97ffff8b 	bl	1d4c <to_gp11_param>
/home/nick2/optee-dependencies/Jetson_Linux_R35.4.1_aarch64/Linux_for_Tegra/sources/tegra/optee-src/nv-optee/optee/optee_os/lib/libutee/user_ta_entry_compat.c:95
    1f24:	aa1303e3 	mov	x3, x19
    1f28:	2a1403e2 	mov	w2, w20
    1f2c:	2a1903e1 	mov	w1, w25
    1f30:	aa1803e0 	mov	x0, x24
    1f34:	d63f02e0 	blr	x23
    1f38:	2a0003e6 	mov	w6, w0
/home/nick2/optee-dependencies/Jetson_Linux_R35.4.1_aarch64/Linux_for_Tegra/sources/tegra/optee-src/nv-optee/optee/optee_os/lib/libutee/user_ta_entry_compat.c:96
    1f3c:	aa1303e1 	mov	x1, x19
    1f40:	2a1403e0 	mov	w0, w20
    1f44:	aa1603e2 	mov	x2, x22
    1f48:	97ffff9a 	bl	1db0 <from_gp11_param>
/home/nick2/optee-dependencies/Jetson_Linux_R35.4.1_aarch64/Linux_for_Tegra/sources/tegra/optee-src/nv-optee/optee/optee_os/lib/libutee/user_ta_entry_compat.c:99
    1f4c:	f9404fe0 	ldr	x0, [sp, #152]
    1f50:	f94002a1 	ldr	x1, [x21]
    1f54:	eb010000 	subs	x0, x0, x1
    1f58:	d2800001 	mov	x1, #0x0                   	// #0
    1f5c:	54000040 	b.eq	1f64 <__ta_invoke_cmd+0xa4>  // b.none
    1f60:	97fff986 	bl	578 <__stack_chk_fail>
    1f64:	2a0603e0 	mov	w0, w6
    1f68:	a94153f3 	ldp	x19, x20, [sp, #16]
    1f6c:	a9425bf5 	ldp	x21, x22, [sp, #32]
    1f70:	a94363f7 	ldp	x23, x24, [sp, #48]
    1f74:	f94023f9 	ldr	x25, [sp, #64]
    1f78:	a8ca7bfd 	ldp	x29, x30, [sp], #160
    1f7c:	d65f03c0 	ret

0000000000001f80 <_utee_panic>:
_utee_panic():
/home/nick2/optee-dependencies/Jetson_Linux_R35.4.1_aarch64/Linux_for_Tegra/sources/tegra/optee-src/nv-optee/optee/optee_os/lib/libutee/arch/arm/utee_syscalls_a64.S:41
    1f80:	a9bf7bfd 	stp	x29, x30, [sp, #-16]!
/home/nick2/optee-dependencies/Jetson_Linux_R35.4.1_aarch64/Linux_for_Tegra/sources/tegra/optee-src/nv-optee/optee/optee_os/lib/libutee/arch/arm/utee_syscalls_a64.S:42
    1f84:	910003e1 	mov	x1, sp
/home/nick2/optee-dependencies/Jetson_Linux_R35.4.1_aarch64/Linux_for_Tegra/sources/tegra/optee-src/nv-optee/optee/optee_os/lib/libutee/arch/arm/utee_syscalls_a64.S:43
    1f88:	94000007 	bl	1fa4 <__utee_panic>

0000000000001f8c <_utee_return>:
_utee_return():
/home/nick2/optee-dependencies/Jetson_Linux_R35.4.1_aarch64/Linux_for_Tegra/sources/tegra/optee-src/nv-optee/optee/optee_os/lib/libutee/include/utee_syscalls_asm.S:8
    1f8c:	d2800008 	mov	x8, #0x0                   	// #0
    1f90:	d4000001 	svc	#0x0
    1f94:	d65f03c0 	ret

0000000000001f98 <_utee_log>:
_utee_log():
/home/nick2/optee-dependencies/Jetson_Linux_R35.4.1_aarch64/Linux_for_Tegra/sources/tegra/optee-src/nv-optee/optee/optee_os/lib/libutee/include/utee_syscalls_asm.S:10
    1f98:	d2800028 	mov	x8, #0x1                   	// #1
    1f9c:	d4000001 	svc	#0x0
    1fa0:	d65f03c0 	ret

0000000000001fa4 <__utee_panic>:
__utee_panic():
/home/nick2/optee-dependencies/Jetson_Linux_R35.4.1_aarch64/Linux_for_Tegra/sources/tegra/optee-src/nv-optee/optee/optee_os/lib/libutee/include/utee_syscalls_asm.S:12
    1fa4:	d2800048 	mov	x8, #0x2                   	// #2
    1fa8:	d4000001 	svc	#0x0
    1fac:	d65f03c0 	ret

0000000000001fb0 <_utee_get_property>:
_utee_get_property():
/home/nick2/optee-dependencies/Jetson_Linux_R35.4.1_aarch64/Linux_for_Tegra/sources/tegra/optee-src/nv-optee/optee/optee_os/lib/libutee/include/utee_syscalls_asm.S:14
    1fb0:	d2800068 	mov	x8, #0x3                   	// #3
    1fb4:	d4000001 	svc	#0x0
    1fb8:	d65f03c0 	ret

0000000000001fbc <_utee_get_property_name_to_index>:
_utee_get_property_name_to_index():
/home/nick2/optee-dependencies/Jetson_Linux_R35.4.1_aarch64/Linux_for_Tegra/sources/tegra/optee-src/nv-optee/optee/optee_os/lib/libutee/include/utee_syscalls_asm.S:16
    1fbc:	d2800088 	mov	x8, #0x4                   	// #4
    1fc0:	d4000001 	svc	#0x0
    1fc4:	d65f03c0 	ret

0000000000001fc8 <_utee_open_ta_session>:
_utee_open_ta_session():
/home/nick2/optee-dependencies/Jetson_Linux_R35.4.1_aarch64/Linux_for_Tegra/sources/tegra/optee-src/nv-optee/optee/optee_os/lib/libutee/include/utee_syscalls_asm.S:19
    1fc8:	d28000a8 	mov	x8, #0x5                   	// #5
    1fcc:	d4000001 	svc	#0x0
    1fd0:	d65f03c0 	ret

0000000000001fd4 <_utee_close_ta_session>:
_utee_close_ta_session():
/home/nick2/optee-dependencies/Jetson_Linux_R35.4.1_aarch64/Linux_for_Tegra/sources/tegra/optee-src/nv-optee/optee/optee_os/lib/libutee/include/utee_syscalls_asm.S:21
    1fd4:	d28000c8 	mov	x8, #0x6                   	// #6
    1fd8:	d4000001 	svc	#0x0
    1fdc:	d65f03c0 	ret

0000000000001fe0 <_utee_invoke_ta_command>:
_utee_invoke_ta_command():
/home/nick2/optee-dependencies/Jetson_Linux_R35.4.1_aarch64/Linux_for_Tegra/sources/tegra/optee-src/nv-optee/optee/optee_os/lib/libutee/include/utee_syscalls_asm.S:23
    1fe0:	d28000e8 	mov	x8, #0x7                   	// #7
    1fe4:	d4000001 	svc	#0x0
    1fe8:	d65f03c0 	ret

0000000000001fec <_utee_get_cancellation_flag>:
_utee_get_cancellation_flag():
/home/nick2/optee-dependencies/Jetson_Linux_R35.4.1_aarch64/Linux_for_Tegra/sources/tegra/optee-src/nv-optee/optee/optee_os/lib/libutee/include/utee_syscalls_asm.S:25
    1fec:	d2800128 	mov	x8, #0x9                   	// #9
    1ff0:	d4000001 	svc	#0x0
    1ff4:	d65f03c0 	ret

0000000000001ff8 <_utee_check_access_rights>:
_utee_check_access_rights():
/home/nick2/optee-dependencies/Jetson_Linux_R35.4.1_aarch64/Linux_for_Tegra/sources/tegra/optee-src/nv-optee/optee/optee_os/lib/libutee/include/utee_syscalls_asm.S:28
    1ff8:	d2800108 	mov	x8, #0x8                   	// #8
    1ffc:	d4000001 	svc	#0x0
    2000:	d65f03c0 	ret

0000000000002004 <_utee_unmask_cancellation>:
_utee_unmask_cancellation():
/home/nick2/optee-dependencies/Jetson_Linux_R35.4.1_aarch64/Linux_for_Tegra/sources/tegra/optee-src/nv-optee/optee/optee_os/lib/libutee/include/utee_syscalls_asm.S:30
    2004:	d2800148 	mov	x8, #0xa                   	// #10
    2008:	d4000001 	svc	#0x0
    200c:	d65f03c0 	ret

0000000000002010 <_utee_mask_cancellation>:
_utee_mask_cancellation():
/home/nick2/optee-dependencies/Jetson_Linux_R35.4.1_aarch64/Linux_for_Tegra/sources/tegra/optee-src/nv-optee/optee/optee_os/lib/libutee/include/utee_syscalls_asm.S:32
    2010:	d2800168 	mov	x8, #0xb                   	// #11
    2014:	d4000001 	svc	#0x0
    2018:	d65f03c0 	ret

000000000000201c <_utee_wait>:
_utee_wait():
/home/nick2/optee-dependencies/Jetson_Linux_R35.4.1_aarch64/Linux_for_Tegra/sources/tegra/optee-src/nv-optee/optee/optee_os/lib/libutee/include/utee_syscalls_asm.S:34
    201c:	d2800188 	mov	x8, #0xc                   	// #12
    2020:	d4000001 	svc	#0x0
    2024:	d65f03c0 	ret

0000000000002028 <_utee_get_time>:
_utee_get_time():
/home/nick2/optee-dependencies/Jetson_Linux_R35.4.1_aarch64/Linux_for_Tegra/sources/tegra/optee-src/nv-optee/optee/optee_os/lib/libutee/include/utee_syscalls_asm.S:36
    2028:	d28001a8 	mov	x8, #0xd                   	// #13
    202c:	d4000001 	svc	#0x0
    2030:	d65f03c0 	ret

0000000000002034 <_utee_set_ta_time>:
_utee_set_ta_time():
/home/nick2/optee-dependencies/Jetson_Linux_R35.4.1_aarch64/Linux_for_Tegra/sources/tegra/optee-src/nv-optee/optee/optee_os/lib/libutee/include/utee_syscalls_asm.S:38
    2034:	d28001c8 	mov	x8, #0xe                   	// #14
    2038:	d4000001 	svc	#0x0
    203c:	d65f03c0 	ret

0000000000002040 <_utee_cryp_state_alloc>:
_utee_cryp_state_alloc():
/home/nick2/optee-dependencies/Jetson_Linux_R35.4.1_aarch64/Linux_for_Tegra/sources/tegra/optee-src/nv-optee/optee/optee_os/lib/libutee/include/utee_syscalls_asm.S:40
    2040:	d28001e8 	mov	x8, #0xf                   	// #15
    2044:	d4000001 	svc	#0x0
    2048:	d65f03c0 	ret

000000000000204c <_utee_cryp_state_copy>:
_utee_cryp_state_copy():
/home/nick2/optee-dependencies/Jetson_Linux_R35.4.1_aarch64/Linux_for_Tegra/sources/tegra/optee-src/nv-optee/optee/optee_os/lib/libutee/include/utee_syscalls_asm.S:42
    204c:	d2800208 	mov	x8, #0x10                  	// #16
    2050:	d4000001 	svc	#0x0
    2054:	d65f03c0 	ret

0000000000002058 <_utee_cryp_state_free>:
_utee_cryp_state_free():
/home/nick2/optee-dependencies/Jetson_Linux_R35.4.1_aarch64/Linux_for_Tegra/sources/tegra/optee-src/nv-optee/optee/optee_os/lib/libutee/include/utee_syscalls_asm.S:44
    2058:	d2800228 	mov	x8, #0x11                  	// #17
    205c:	d4000001 	svc	#0x0
    2060:	d65f03c0 	ret

0000000000002064 <_utee_hash_init>:
_utee_hash_init():
/home/nick2/optee-dependencies/Jetson_Linux_R35.4.1_aarch64/Linux_for_Tegra/sources/tegra/optee-src/nv-optee/optee/optee_os/lib/libutee/include/utee_syscalls_asm.S:46
    2064:	d2800248 	mov	x8, #0x12                  	// #18
    2068:	d4000001 	svc	#0x0
    206c:	d65f03c0 	ret

0000000000002070 <_utee_hash_update>:
_utee_hash_update():
/home/nick2/optee-dependencies/Jetson_Linux_R35.4.1_aarch64/Linux_for_Tegra/sources/tegra/optee-src/nv-optee/optee/optee_os/lib/libutee/include/utee_syscalls_asm.S:48
    2070:	d2800268 	mov	x8, #0x13                  	// #19
    2074:	d4000001 	svc	#0x0
    2078:	d65f03c0 	ret

000000000000207c <_utee_hash_final>:
_utee_hash_final():
/home/nick2/optee-dependencies/Jetson_Linux_R35.4.1_aarch64/Linux_for_Tegra/sources/tegra/optee-src/nv-optee/optee/optee_os/lib/libutee/include/utee_syscalls_asm.S:50
    207c:	d2800288 	mov	x8, #0x14                  	// #20
    2080:	d4000001 	svc	#0x0
    2084:	d65f03c0 	ret

0000000000002088 <_utee_cipher_init>:
_utee_cipher_init():
/home/nick2/optee-dependencies/Jetson_Linux_R35.4.1_aarch64/Linux_for_Tegra/sources/tegra/optee-src/nv-optee/optee/optee_os/lib/libutee/include/utee_syscalls_asm.S:52
    2088:	d28002a8 	mov	x8, #0x15                  	// #21
    208c:	d4000001 	svc	#0x0
    2090:	d65f03c0 	ret

0000000000002094 <_utee_cipher_update>:
_utee_cipher_update():
/home/nick2/optee-dependencies/Jetson_Linux_R35.4.1_aarch64/Linux_for_Tegra/sources/tegra/optee-src/nv-optee/optee/optee_os/lib/libutee/include/utee_syscalls_asm.S:54
    2094:	d28002c8 	mov	x8, #0x16                  	// #22
    2098:	d4000001 	svc	#0x0
    209c:	d65f03c0 	ret

00000000000020a0 <_utee_cipher_final>:
_utee_cipher_final():
/home/nick2/optee-dependencies/Jetson_Linux_R35.4.1_aarch64/Linux_for_Tegra/sources/tegra/optee-src/nv-optee/optee/optee_os/lib/libutee/include/utee_syscalls_asm.S:56
    20a0:	d28002e8 	mov	x8, #0x17                  	// #23
    20a4:	d4000001 	svc	#0x0
    20a8:	d65f03c0 	ret

00000000000020ac <_utee_cryp_obj_get_info>:
_utee_cryp_obj_get_info():
/home/nick2/optee-dependencies/Jetson_Linux_R35.4.1_aarch64/Linux_for_Tegra/sources/tegra/optee-src/nv-optee/optee/optee_os/lib/libutee/include/utee_syscalls_asm.S:58
    20ac:	d2800308 	mov	x8, #0x18                  	// #24
    20b0:	d4000001 	svc	#0x0
    20b4:	d65f03c0 	ret

00000000000020b8 <_utee_cryp_obj_restrict_usage>:
_utee_cryp_obj_restrict_usage():
/home/nick2/optee-dependencies/Jetson_Linux_R35.4.1_aarch64/Linux_for_Tegra/sources/tegra/optee-src/nv-optee/optee/optee_os/lib/libutee/include/utee_syscalls_asm.S:60
    20b8:	d2800328 	mov	x8, #0x19                  	// #25
    20bc:	d4000001 	svc	#0x0
    20c0:	d65f03c0 	ret

00000000000020c4 <_utee_cryp_obj_get_attr>:
_utee_cryp_obj_get_attr():
/home/nick2/optee-dependencies/Jetson_Linux_R35.4.1_aarch64/Linux_for_Tegra/sources/tegra/optee-src/nv-optee/optee/optee_os/lib/libutee/include/utee_syscalls_asm.S:63
    20c4:	d2800348 	mov	x8, #0x1a                  	// #26
    20c8:	d4000001 	svc	#0x0
    20cc:	d65f03c0 	ret

00000000000020d0 <_utee_cryp_obj_alloc>:
_utee_cryp_obj_alloc():
/home/nick2/optee-dependencies/Jetson_Linux_R35.4.1_aarch64/Linux_for_Tegra/sources/tegra/optee-src/nv-optee/optee/optee_os/lib/libutee/include/utee_syscalls_asm.S:65
    20d0:	d2800368 	mov	x8, #0x1b                  	// #27
    20d4:	d4000001 	svc	#0x0
    20d8:	d65f03c0 	ret

00000000000020dc <_utee_cryp_obj_close>:
_utee_cryp_obj_close():
/home/nick2/optee-dependencies/Jetson_Linux_R35.4.1_aarch64/Linux_for_Tegra/sources/tegra/optee-src/nv-optee/optee/optee_os/lib/libutee/include/utee_syscalls_asm.S:67
    20dc:	d2800388 	mov	x8, #0x1c                  	// #28
    20e0:	d4000001 	svc	#0x0
    20e4:	d65f03c0 	ret

00000000000020e8 <_utee_cryp_obj_reset>:
_utee_cryp_obj_reset():
/home/nick2/optee-dependencies/Jetson_Linux_R35.4.1_aarch64/Linux_for_Tegra/sources/tegra/optee-src/nv-optee/optee/optee_os/lib/libutee/include/utee_syscalls_asm.S:69
    20e8:	d28003a8 	mov	x8, #0x1d                  	// #29
    20ec:	d4000001 	svc	#0x0
    20f0:	d65f03c0 	ret

00000000000020f4 <_utee_cryp_obj_populate>:
_utee_cryp_obj_populate():
/home/nick2/optee-dependencies/Jetson_Linux_R35.4.1_aarch64/Linux_for_Tegra/sources/tegra/optee-src/nv-optee/optee/optee_os/lib/libutee/include/utee_syscalls_asm.S:71
    20f4:	d28003c8 	mov	x8, #0x1e                  	// #30
    20f8:	d4000001 	svc	#0x0
    20fc:	d65f03c0 	ret

0000000000002100 <_utee_cryp_obj_copy>:
_utee_cryp_obj_copy():
/home/nick2/optee-dependencies/Jetson_Linux_R35.4.1_aarch64/Linux_for_Tegra/sources/tegra/optee-src/nv-optee/optee/optee_os/lib/libutee/include/utee_syscalls_asm.S:73
    2100:	d28003e8 	mov	x8, #0x1f                  	// #31
    2104:	d4000001 	svc	#0x0
    2108:	d65f03c0 	ret

000000000000210c <_utee_cryp_derive_key>:
_utee_cryp_derive_key():
/home/nick2/optee-dependencies/Jetson_Linux_R35.4.1_aarch64/Linux_for_Tegra/sources/tegra/optee-src/nv-optee/optee/optee_os/lib/libutee/include/utee_syscalls_asm.S:75
    210c:	d2800408 	mov	x8, #0x20                  	// #32
    2110:	d4000001 	svc	#0x0
    2114:	d65f03c0 	ret

0000000000002118 <_utee_cryp_random_number_generate>:
_utee_cryp_random_number_generate():
/home/nick2/optee-dependencies/Jetson_Linux_R35.4.1_aarch64/Linux_for_Tegra/sources/tegra/optee-src/nv-optee/optee/optee_os/lib/libutee/include/utee_syscalls_asm.S:77
    2118:	d2800428 	mov	x8, #0x21                  	// #33
    211c:	d4000001 	svc	#0x0
    2120:	d65f03c0 	ret

0000000000002124 <_utee_authenc_init>:
_utee_authenc_init():
/home/nick2/optee-dependencies/Jetson_Linux_R35.4.1_aarch64/Linux_for_Tegra/sources/tegra/optee-src/nv-optee/optee/optee_os/lib/libutee/include/utee_syscalls_asm.S:80
    2124:	d2800448 	mov	x8, #0x22                  	// #34
    2128:	d4000001 	svc	#0x0
    212c:	d65f03c0 	ret

0000000000002130 <_utee_authenc_update_aad>:
_utee_authenc_update_aad():
/home/nick2/optee-dependencies/Jetson_Linux_R35.4.1_aarch64/Linux_for_Tegra/sources/tegra/optee-src/nv-optee/optee/optee_os/lib/libutee/include/utee_syscalls_asm.S:82
    2130:	d2800468 	mov	x8, #0x23                  	// #35
    2134:	d4000001 	svc	#0x0
    2138:	d65f03c0 	ret

000000000000213c <_utee_authenc_update_payload>:
_utee_authenc_update_payload():
/home/nick2/optee-dependencies/Jetson_Linux_R35.4.1_aarch64/Linux_for_Tegra/sources/tegra/optee-src/nv-optee/optee/optee_os/lib/libutee/include/utee_syscalls_asm.S:84
    213c:	d2800488 	mov	x8, #0x24                  	// #36
    2140:	d4000001 	svc	#0x0
    2144:	d65f03c0 	ret

0000000000002148 <_utee_authenc_enc_final>:
_utee_authenc_enc_final():
/home/nick2/optee-dependencies/Jetson_Linux_R35.4.1_aarch64/Linux_for_Tegra/sources/tegra/optee-src/nv-optee/optee/optee_os/lib/libutee/include/utee_syscalls_asm.S:87
    2148:	d28004a8 	mov	x8, #0x25                  	// #37
    214c:	d4000001 	svc	#0x0
    2150:	d65f03c0 	ret

0000000000002154 <_utee_authenc_dec_final>:
_utee_authenc_dec_final():
/home/nick2/optee-dependencies/Jetson_Linux_R35.4.1_aarch64/Linux_for_Tegra/sources/tegra/optee-src/nv-optee/optee/optee_os/lib/libutee/include/utee_syscalls_asm.S:89
    2154:	d28004c8 	mov	x8, #0x26                  	// #38
    2158:	d4000001 	svc	#0x0
    215c:	d65f03c0 	ret

0000000000002160 <_utee_asymm_operate>:
_utee_asymm_operate():
/home/nick2/optee-dependencies/Jetson_Linux_R35.4.1_aarch64/Linux_for_Tegra/sources/tegra/optee-src/nv-optee/optee/optee_os/lib/libutee/include/utee_syscalls_asm.S:91
    2160:	d28004e8 	mov	x8, #0x27                  	// #39
    2164:	d4000001 	svc	#0x0
    2168:	d65f03c0 	ret

000000000000216c <_utee_asymm_verify>:
_utee_asymm_verify():
/home/nick2/optee-dependencies/Jetson_Linux_R35.4.1_aarch64/Linux_for_Tegra/sources/tegra/optee-src/nv-optee/optee/optee_os/lib/libutee/include/utee_syscalls_asm.S:93
    216c:	d2800508 	mov	x8, #0x28                  	// #40
    2170:	d4000001 	svc	#0x0
    2174:	d65f03c0 	ret

0000000000002178 <_utee_storage_obj_open>:
_utee_storage_obj_open():
/home/nick2/optee-dependencies/Jetson_Linux_R35.4.1_aarch64/Linux_for_Tegra/sources/tegra/optee-src/nv-optee/optee/optee_os/lib/libutee/include/utee_syscalls_asm.S:95
    2178:	d2800528 	mov	x8, #0x29                  	// #41
    217c:	d4000001 	svc	#0x0
    2180:	d65f03c0 	ret

0000000000002184 <_utee_storage_obj_create>:
_utee_storage_obj_create():
/home/nick2/optee-dependencies/Jetson_Linux_R35.4.1_aarch64/Linux_for_Tegra/sources/tegra/optee-src/nv-optee/optee/optee_os/lib/libutee/include/utee_syscalls_asm.S:97
    2184:	d2800548 	mov	x8, #0x2a                  	// #42
    2188:	d4000001 	svc	#0x0
    218c:	d65f03c0 	ret

0000000000002190 <_utee_storage_obj_del>:
_utee_storage_obj_del():
/home/nick2/optee-dependencies/Jetson_Linux_R35.4.1_aarch64/Linux_for_Tegra/sources/tegra/optee-src/nv-optee/optee/optee_os/lib/libutee/include/utee_syscalls_asm.S:99
    2190:	d2800568 	mov	x8, #0x2b                  	// #43
    2194:	d4000001 	svc	#0x0
    2198:	d65f03c0 	ret

000000000000219c <_utee_storage_obj_rename>:
_utee_storage_obj_rename():
/home/nick2/optee-dependencies/Jetson_Linux_R35.4.1_aarch64/Linux_for_Tegra/sources/tegra/optee-src/nv-optee/optee/optee_os/lib/libutee/include/utee_syscalls_asm.S:101
    219c:	d2800588 	mov	x8, #0x2c                  	// #44
    21a0:	d4000001 	svc	#0x0
    21a4:	d65f03c0 	ret

00000000000021a8 <_utee_storage_alloc_enum>:
_utee_storage_alloc_enum():
/home/nick2/optee-dependencies/Jetson_Linux_R35.4.1_aarch64/Linux_for_Tegra/sources/tegra/optee-src/nv-optee/optee/optee_os/lib/libutee/include/utee_syscalls_asm.S:103
    21a8:	d28005a8 	mov	x8, #0x2d                  	// #45
    21ac:	d4000001 	svc	#0x0
    21b0:	d65f03c0 	ret

00000000000021b4 <_utee_storage_free_enum>:
_utee_storage_free_enum():
/home/nick2/optee-dependencies/Jetson_Linux_R35.4.1_aarch64/Linux_for_Tegra/sources/tegra/optee-src/nv-optee/optee/optee_os/lib/libutee/include/utee_syscalls_asm.S:105
    21b4:	d28005c8 	mov	x8, #0x2e                  	// #46
    21b8:	d4000001 	svc	#0x0
    21bc:	d65f03c0 	ret

00000000000021c0 <_utee_storage_reset_enum>:
_utee_storage_reset_enum():
/home/nick2/optee-dependencies/Jetson_Linux_R35.4.1_aarch64/Linux_for_Tegra/sources/tegra/optee-src/nv-optee/optee/optee_os/lib/libutee/include/utee_syscalls_asm.S:107
    21c0:	d28005e8 	mov	x8, #0x2f                  	// #47
    21c4:	d4000001 	svc	#0x0
    21c8:	d65f03c0 	ret

00000000000021cc <_utee_storage_start_enum>:
_utee_storage_start_enum():
/home/nick2/optee-dependencies/Jetson_Linux_R35.4.1_aarch64/Linux_for_Tegra/sources/tegra/optee-src/nv-optee/optee/optee_os/lib/libutee/include/utee_syscalls_asm.S:109
    21cc:	d2800608 	mov	x8, #0x30                  	// #48
    21d0:	d4000001 	svc	#0x0
    21d4:	d65f03c0 	ret

00000000000021d8 <_utee_storage_next_enum>:
_utee_storage_next_enum():
/home/nick2/optee-dependencies/Jetson_Linux_R35.4.1_aarch64/Linux_for_Tegra/sources/tegra/optee-src/nv-optee/optee/optee_os/lib/libutee/include/utee_syscalls_asm.S:111
    21d8:	d2800628 	mov	x8, #0x31                  	// #49
    21dc:	d4000001 	svc	#0x0
    21e0:	d65f03c0 	ret

00000000000021e4 <_utee_storage_obj_read>:
_utee_storage_obj_read():
/home/nick2/optee-dependencies/Jetson_Linux_R35.4.1_aarch64/Linux_for_Tegra/sources/tegra/optee-src/nv-optee/optee/optee_os/lib/libutee/include/utee_syscalls_asm.S:113
    21e4:	d2800648 	mov	x8, #0x32                  	// #50
    21e8:	d4000001 	svc	#0x0
    21ec:	d65f03c0 	ret

00000000000021f0 <_utee_storage_obj_write>:
_utee_storage_obj_write():
/home/nick2/optee-dependencies/Jetson_Linux_R35.4.1_aarch64/Linux_for_Tegra/sources/tegra/optee-src/nv-optee/optee/optee_os/lib/libutee/include/utee_syscalls_asm.S:115
    21f0:	d2800668 	mov	x8, #0x33                  	// #51
    21f4:	d4000001 	svc	#0x0
    21f8:	d65f03c0 	ret

00000000000021fc <_utee_storage_obj_trunc>:
_utee_storage_obj_trunc():
/home/nick2/optee-dependencies/Jetson_Linux_R35.4.1_aarch64/Linux_for_Tegra/sources/tegra/optee-src/nv-optee/optee/optee_os/lib/libutee/include/utee_syscalls_asm.S:117
    21fc:	d2800688 	mov	x8, #0x34                  	// #52
    2200:	d4000001 	svc	#0x0
    2204:	d65f03c0 	ret

0000000000002208 <_utee_storage_obj_seek>:
_utee_storage_obj_seek():
